(i__main__
TreeNode
p0
(dp1
S'nodes'
p2
(lp3
(i__main__
TreeNode
p4
(dp5
g2
(lp6
(i__main__
TreeNode
p7
(dp8
g2
(lp9
(i__main__
TreeNode
p10
(dp11
g2
(lp12
I-1
aI-1
aI-1
aI-1
aI-1
asS'data'
p13
S'F'
p14
sba(i__main__
TreeNode
p15
(dp16
g2
(lp17
I-1
aI-1
aI-1
aI-1
aI-1
asg13
g14
sba(i__main__
TreeNode
p18
(dp19
g2
(lp20
I-1
aI-1
aI-1
aI-1
aI-1
asg13
S'T'
p21
sba(i__main__
TreeNode
p22
(dp23
g2
(lp24
I-1
aI-1
aI-1
aI-1
aI-1
asg13
g14
sba(i__main__
TreeNode
p25
(dp26
g2
(lp27
I-1
aI-1
aI-1
aI-1
aI-1
asg13
g21
sbasg13
I16
sba(i__main__
TreeNode
p28
(dp29
g2
(lp30
I-1
aI-1
aI-1
aI-1
aI-1
asg13
g14
sba(i__main__
TreeNode
p31
(dp32
g2
(lp33
I-1
aI-1
aI-1
aI-1
aI-1
asg13
g14
sba(i__main__
TreeNode
p34
(dp35
g2
(lp36
I-1
aI-1
aI-1
aI-1
aI-1
asg13
g14
sba(i__main__
TreeNode
p37
(dp38
g2
(lp39
I-1
aI-1
aI-1
aI-1
aI-1
asg13
g14
sbasg13
I272
sba(i__main__
TreeNode
p40
(dp41
g2
(lp42
(i__main__
TreeNode
p43
(dp44
g2
(lp45
(i__main__
TreeNode
p46
(dp47
g2
(lp48
(i__main__
TreeNode
p49
(dp50
g2
(lp51
I-1
aI-1
aI-1
aI-1
aI-1
asg13
g14
sba(i__main__
TreeNode
p52
(dp53
g2
(lp54
I-1
aI-1
aI-1
aI-1
aI-1
asg13
g14
sba(i__main__
TreeNode
p55
(dp56
g2
(lp57
I-1
aI-1
aI-1
aI-1
aI-1
asg13
g14
sba(i__main__
TreeNode
p58
(dp59
g2
(lp60
(i__main__
TreeNode
p61
(dp62
g2
(lp63
(i__main__
TreeNode
p64
(dp65
g2
(lp66
I-1
aI-1
aI-1
aI-1
aI-1
asg13
g14
sba(i__main__
TreeNode
p67
(dp68
g2
(lp69
I-1
aI-1
aI-1
aI-1
aI-1
asg13
g21
sba(i__main__
TreeNode
p70
(dp71
g2
(lp72
I-1
aI-1
aI-1
aI-1
aI-1
asg13
g21
sba(i__main__
TreeNode
p73
(dp74
g2
(lp75
I-1
aI-1
aI-1
aI-1
aI-1
asg13
g21
sba(i__main__
TreeNode
p76
(dp77
g2
(lp78
I-1
aI-1
aI-1
aI-1
aI-1
asg13
g21
sbasg13
I264
sba(i__main__
TreeNode
p79
(dp80
g2
(lp81
I-1
aI-1
aI-1
aI-1
aI-1
asg13
g14
sba(i__main__
TreeNode
p82
(dp83
g2
(lp84
I-1
aI-1
aI-1
aI-1
aI-1
asg13
g21
sba(i__main__
TreeNode
p85
(dp86
g2
(lp87
I-1
aI-1
aI-1
aI-1
aI-1
asg13
g14
sba(i__main__
TreeNode
p88
(dp89
g2
(lp90
I-1
aI-1
aI-1
aI-1
aI-1
asg13
g14
sbasg13
I140
sba(i__main__
TreeNode
p91
(dp92
g2
(lp93
I-1
aI-1
aI-1
aI-1
aI-1
asg13
g14
sbasg13
I267
sba(i__main__
TreeNode
p94
(dp95
g2
(lp96
I-1
aI-1
aI-1
aI-1
aI-1
asg13
g14
sba(i__main__
TreeNode
p97
(dp98
g2
(lp99
I-1
aI-1
aI-1
aI-1
aI-1
asg13
g21
sba(i__main__
TreeNode
p100
(dp101
g2
(lp102
(i__main__
TreeNode
p103
(dp104
g2
(lp105
I-1
aI-1
aI-1
aI-1
aI-1
asg13
g21
sba(i__main__
TreeNode
p106
(dp107
g2
(lp108
I-1
aI-1
aI-1
aI-1
aI-1
asg13
g14
sba(i__main__
TreeNode
p109
(dp110
g2
(lp111
I-1
aI-1
aI-1
aI-1
aI-1
asg13
g21
sba(i__main__
TreeNode
p112
(dp113
g2
(lp114
I-1
aI-1
aI-1
aI-1
aI-1
asg13
g21
sba(i__main__
TreeNode
p115
(dp116
g2
(lp117
I-1
aI-1
aI-1
aI-1
aI-1
asg13
g21
sbasg13
I126
sba(i__main__
TreeNode
p118
(dp119
g2
(lp120
I-1
aI-1
aI-1
aI-1
aI-1
asg13
g21
sbasg13
I81
sba(i__main__
TreeNode
p121
(dp122
g2
(lp123
I-1
aI-1
aI-1
aI-1
aI-1
asg13
g21
sba(i__main__
TreeNode
p124
(dp125
g2
(lp126
I-1
aI-1
aI-1
aI-1
aI-1
asg13
g14
sba(i__main__
TreeNode
p127
(dp128
g2
(lp129
(i__main__
TreeNode
p130
(dp131
g2
(lp132
I-1
aI-1
aI-1
aI-1
aI-1
asg13
g21
sba(i__main__
TreeNode
p133
(dp134
g2
(lp135
(i__main__
TreeNode
p136
(dp137
g2
(lp138
I-1
aI-1
aI-1
aI-1
aI-1
asg13
g14
sba(i__main__
TreeNode
p139
(dp140
g2
(lp141
I-1
aI-1
aI-1
aI-1
aI-1
asg13
g14
sba(i__main__
TreeNode
p142
(dp143
g2
(lp144
I-1
aI-1
aI-1
aI-1
aI-1
asg13
g14
sba(i__main__
TreeNode
p145
(dp146
g2
(lp147
I-1
aI-1
aI-1
aI-1
aI-1
asg13
g14
sba(i__main__
TreeNode
p148
(dp149
g2
(lp150
I-1
aI-1
aI-1
aI-1
aI-1
asg13
g14
sbasg13
I22
sba(i__main__
TreeNode
p151
(dp152
g2
(lp153
I-1
aI-1
aI-1
aI-1
aI-1
asg13
g14
sba(i__main__
TreeNode
p154
(dp155
g2
(lp156
I-1
aI-1
aI-1
aI-1
aI-1
asg13
g14
sba(i__main__
TreeNode
p157
(dp158
g2
(lp159
I-1
aI-1
aI-1
aI-1
aI-1
asg13
g14
sbasg13
I15
sba(i__main__
TreeNode
p160
(dp161
g2
(lp162
I-1
aI-1
aI-1
aI-1
aI-1
asg13
g14
sbasg13
I168
sba(i__main__
TreeNode
p163
(dp164
g2
(lp165
(i__main__
TreeNode
p166
(dp167
g2
(lp168
(i__main__
TreeNode
p169
(dp170
g2
(lp171
(i__main__
TreeNode
p172
(dp173
g2
(lp174
I-1
aI-1
aI-1
aI-1
aI-1
asg13
g14
sba(i__main__
TreeNode
p175
(dp176
g2
(lp177
I-1
aI-1
aI-1
aI-1
aI-1
asg13
g21
sba(i__main__
TreeNode
p178
(dp179
g2
(lp180
I-1
aI-1
aI-1
aI-1
aI-1
asg13
g21
sba(i__main__
TreeNode
p181
(dp182
g2
(lp183
I-1
aI-1
aI-1
aI-1
aI-1
asg13
g21
sba(i__main__
TreeNode
p184
(dp185
g2
(lp186
I-1
aI-1
aI-1
aI-1
aI-1
asg13
g21
sbasg13
I20
sba(i__main__
TreeNode
p187
(dp188
g2
(lp189
(i__main__
TreeNode
p190
(dp191
g2
(lp192
(i__main__
TreeNode
p193
(dp194
g2
(lp195
I-1
aI-1
aI-1
aI-1
aI-1
asg13
g14
sba(i__main__
TreeNode
p196
(dp197
g2
(lp198
I-1
aI-1
aI-1
aI-1
aI-1
asg13
g14
sba(i__main__
TreeNode
p199
(dp200
g2
(lp201
I-1
aI-1
aI-1
aI-1
aI-1
asg13
g14
sba(i__main__
TreeNode
p202
(dp203
g2
(lp204
(i__main__
TreeNode
p205
(dp206
g2
(lp207
I-1
aI-1
aI-1
aI-1
aI-1
asg13
g14
sba(i__main__
TreeNode
p208
(dp209
g2
(lp210
I-1
aI-1
aI-1
aI-1
aI-1
asg13
g14
sba(i__main__
TreeNode
p211
(dp212
g2
(lp213
I-1
aI-1
aI-1
aI-1
aI-1
asg13
g14
sba(i__main__
TreeNode
p214
(dp215
g2
(lp216
I-1
aI-1
aI-1
aI-1
aI-1
asg13
g14
sba(i__main__
TreeNode
p217
(dp218
g2
(lp219
I-1
aI-1
aI-1
aI-1
aI-1
asg13
g14
sbasg13
I184
sba(i__main__
TreeNode
p220
(dp221
g2
(lp222
I-1
aI-1
aI-1
aI-1
aI-1
asg13
g14
sbasg13
I88
sba(i__main__
TreeNode
p223
(dp224
g2
(lp225
I-1
aI-1
aI-1
aI-1
aI-1
asg13
g14
sba(i__main__
TreeNode
p226
(dp227
g2
(lp228
I-1
aI-1
aI-1
aI-1
aI-1
asg13
g14
sba(i__main__
TreeNode
p229
(dp230
g2
(lp231
I-1
aI-1
aI-1
aI-1
aI-1
asg13
g14
sba(i__main__
TreeNode
p232
(dp233
g2
(lp234
(i__main__
TreeNode
p235
(dp236
g2
(lp237
I-1
aI-1
aI-1
aI-1
aI-1
asg13
g14
sba(i__main__
TreeNode
p238
(dp239
g2
(lp240
I-1
aI-1
aI-1
aI-1
aI-1
asg13
g14
sba(i__main__
TreeNode
p241
(dp242
g2
(lp243
I-1
aI-1
aI-1
aI-1
aI-1
asg13
g14
sba(i__main__
TreeNode
p244
(dp245
g2
(lp246
I-1
aI-1
aI-1
aI-1
aI-1
asg13
g14
sba(i__main__
TreeNode
p247
(dp248
g2
(lp249
I-1
aI-1
aI-1
aI-1
aI-1
asg13
g14
sbasg13
I178
sbasg13
I89
sba(i__main__
TreeNode
p250
(dp251
g2
(lp252
(i__main__
TreeNode
p253
(dp254
g2
(lp255
I-1
aI-1
aI-1
aI-1
aI-1
asg13
g14
sba(i__main__
TreeNode
p256
(dp257
g2
(lp258
I-1
aI-1
aI-1
aI-1
aI-1
asg13
g14
sba(i__main__
TreeNode
p259
(dp260
g2
(lp261
I-1
aI-1
aI-1
aI-1
aI-1
asg13
g14
sba(i__main__
TreeNode
p262
(dp263
g2
(lp264
I-1
aI-1
aI-1
aI-1
aI-1
asg13
g14
sba(i__main__
TreeNode
p265
(dp266
g2
(lp267
I-1
aI-1
aI-1
aI-1
aI-1
asg13
g14
sbasg13
I266
sba(i__main__
TreeNode
p268
(dp269
g2
(lp270
I-1
aI-1
aI-1
aI-1
aI-1
asg13
g14
sba(i__main__
TreeNode
p271
(dp272
g2
(lp273
(i__main__
TreeNode
p274
(dp275
g2
(lp276
I-1
aI-1
aI-1
aI-1
aI-1
asg13
g14
sba(i__main__
TreeNode
p277
(dp278
g2
(lp279
I-1
aI-1
aI-1
aI-1
aI-1
asg13
g14
sba(i__main__
TreeNode
p280
(dp281
g2
(lp282
I-1
aI-1
aI-1
aI-1
aI-1
asg13
g14
sba(i__main__
TreeNode
p283
(dp284
g2
(lp285
I-1
aI-1
aI-1
aI-1
aI-1
asg13
g14
sba(i__main__
TreeNode
p286
(dp287
g2
(lp288
I-1
aI-1
aI-1
aI-1
aI-1
asg13
g14
sbasg13
I247
sbasg13
I271
sba(i__main__
TreeNode
p289
(dp290
g2
(lp291
(i__main__
TreeNode
p292
(dp293
g2
(lp294
(i__main__
TreeNode
p295
(dp296
g2
(lp297
I-1
aI-1
aI-1
aI-1
aI-1
asg13
g14
sba(i__main__
TreeNode
p298
(dp299
g2
(lp300
I-1
aI-1
aI-1
aI-1
aI-1
asg13
g14
sba(i__main__
TreeNode
p301
(dp302
g2
(lp303
I-1
aI-1
aI-1
aI-1
aI-1
asg13
g21
sba(i__main__
TreeNode
p304
(dp305
g2
(lp306
I-1
aI-1
aI-1
aI-1
aI-1
asg13
g14
sba(i__main__
TreeNode
p307
(dp308
g2
(lp309
I-1
aI-1
aI-1
aI-1
aI-1
asg13
g14
sbasg13
I174
sba(i__main__
TreeNode
p310
(dp311
g2
(lp312
I-1
aI-1
aI-1
aI-1
aI-1
asg13
g14
sba(i__main__
TreeNode
p313
(dp314
g2
(lp315
I-1
aI-1
aI-1
aI-1
aI-1
asg13
g21
sba(i__main__
TreeNode
p316
(dp317
g2
(lp318
I-1
aI-1
aI-1
aI-1
aI-1
asg13
g14
sba(i__main__
TreeNode
p319
(dp320
g2
(lp321
I-1
aI-1
aI-1
aI-1
aI-1
asg13
g21
sbasg13
I18
sba(i__main__
TreeNode
p322
(dp323
g2
(lp324
(i__main__
TreeNode
p325
(dp326
g2
(lp327
(i__main__
TreeNode
p328
(dp329
g2
(lp330
I-1
aI-1
aI-1
aI-1
aI-1
asg13
g14
sba(i__main__
TreeNode
p331
(dp332
g2
(lp333
I-1
aI-1
aI-1
aI-1
aI-1
asg13
g14
sba(i__main__
TreeNode
p334
(dp335
g2
(lp336
I-1
aI-1
aI-1
aI-1
aI-1
asg13
g14
sba(i__main__
TreeNode
p337
(dp338
g2
(lp339
I-1
aI-1
aI-1
aI-1
aI-1
asg13
g14
sba(i__main__
TreeNode
p340
(dp341
g2
(lp342
I-1
aI-1
aI-1
aI-1
aI-1
asg13
g14
sbasg13
I120
sba(i__main__
TreeNode
p343
(dp344
g2
(lp345
I-1
aI-1
aI-1
aI-1
aI-1
asg13
g21
sba(i__main__
TreeNode
p346
(dp347
g2
(lp348
I-1
aI-1
aI-1
aI-1
aI-1
asg13
g21
sba(i__main__
TreeNode
p349
(dp350
g2
(lp351
I-1
aI-1
aI-1
aI-1
aI-1
asg13
g21
sba(i__main__
TreeNode
p352
(dp353
g2
(lp354
I-1
aI-1
aI-1
aI-1
aI-1
asg13
g21
sbasg13
I84
sba(i__main__
TreeNode
p355
(dp356
g2
(lp357
I-1
aI-1
aI-1
aI-1
aI-1
asg13
g14
sba(i__main__
TreeNode
p358
(dp359
g2
(lp360
I-1
aI-1
aI-1
aI-1
aI-1
asg13
g14
sbasg13
I269
sba(i__main__
TreeNode
p361
(dp362
g2
(lp363
(i__main__
TreeNode
p364
(dp365
g2
(lp366
I-1
aI-1
aI-1
aI-1
aI-1
asg13
g14
sba(i__main__
TreeNode
p367
(dp368
g2
(lp369
I-1
aI-1
aI-1
aI-1
aI-1
asg13
g14
sba(i__main__
TreeNode
p370
(dp371
g2
(lp372
I-1
aI-1
aI-1
aI-1
aI-1
asg13
g21
sba(i__main__
TreeNode
p373
(dp374
g2
(lp375
I-1
aI-1
aI-1
aI-1
aI-1
asg13
g21
sba(i__main__
TreeNode
p376
(dp377
g2
(lp378
I-1
aI-1
aI-1
aI-1
aI-1
asg13
g21
sbasg13
I38
sba(i__main__
TreeNode
p379
(dp380
g2
(lp381
(i__main__
TreeNode
p382
(dp383
g2
(lp384
I-1
aI-1
aI-1
aI-1
aI-1
asg13
g14
sba(i__main__
TreeNode
p385
(dp386
g2
(lp387
I-1
aI-1
aI-1
aI-1
aI-1
asg13
g21
sba(i__main__
TreeNode
p388
(dp389
g2
(lp390
I-1
aI-1
aI-1
aI-1
aI-1
asg13
g21
sba(i__main__
TreeNode
p391
(dp392
g2
(lp393
I-1
aI-1
aI-1
aI-1
aI-1
asg13
g21
sba(i__main__
TreeNode
p394
(dp395
g2
(lp396
I-1
aI-1
aI-1
aI-1
aI-1
asg13
g21
sbasg13
I47
sbasg13
I90
sb.