(i__main__
ID3DecisionTree
p0
(dp1
S'root'
p2
(i__main__
TreeNode
p3
(dp4
S'children'
p5
(dp6
cnumpy.core.multiarray
scalar
p7
(cnumpy
dtype
p8
(S'i8'
p9
I0
I1
tp10
Rp11
(I3
S'<'
p12
NNNI-1
I-1
I0
tp13
bS'\x01\x00\x00\x00\x00\x00\x00\x00'
p14
tp15
Rp16
(i__main__
TreeNode
p17
(dp18
g5
(dp19
g7
(g11
S'\x01\x00\x00\x00\x00\x00\x00\x00'
p20
tp21
Rp22
(i__main__
TreeNode
p23
(dp24
g5
(dp25
g7
(g11
S'\x01\x00\x00\x00\x00\x00\x00\x00'
p26
tp27
Rp28
(i__main__
TreeNode
p29
(dp30
g5
(dp31
g7
(g11
S'\x01\x00\x00\x00\x00\x00\x00\x00'
p32
tp33
Rp34
(i__main__
TreeNode
p35
(dp36
g5
(dp37
g7
(g11
S'\x01\x00\x00\x00\x00\x00\x00\x00'
p38
tp39
Rp40
(i__main__
TreeNode
p41
(dp42
g5
(dp43
sS'val'
p44
I00
sbsg7
(g11
S'\x03\x00\x00\x00\x00\x00\x00\x00'
p45
tp46
Rp47
(i__main__
TreeNode
p48
(dp49
g5
(dp50
sg44
I00
sbsg7
(g11
S'\x04\x00\x00\x00\x00\x00\x00\x00'
p51
tp52
Rp53
(i__main__
TreeNode
p54
(dp55
g5
(dp56
sg44
I01
sbsg7
(g11
S'\x05\x00\x00\x00\x00\x00\x00\x00'
p57
tp58
Rp59
(i__main__
TreeNode
p60
(dp61
g5
(dp62
g7
(g11
S'\x01\x00\x00\x00\x00\x00\x00\x00'
p63
tp64
Rp65
(i__main__
TreeNode
p66
(dp67
g5
(dp68
sg44
I00
sbsg7
(g11
S'\x02\x00\x00\x00\x00\x00\x00\x00'
p69
tp70
Rp71
(i__main__
TreeNode
p72
(dp73
g5
(dp74
sg44
I00
sbsg7
(g11
S'\x03\x00\x00\x00\x00\x00\x00\x00'
p75
tp76
Rp77
(i__main__
TreeNode
p78
(dp79
g5
(dp80
g7
(g11
S'\x01\x00\x00\x00\x00\x00\x00\x00'
p81
tp82
Rp83
(i__main__
TreeNode
p84
(dp85
g5
(dp86
sg44
I01
sbsg7
(g11
S'\x02\x00\x00\x00\x00\x00\x00\x00'
p87
tp88
Rp89
(i__main__
TreeNode
p90
(dp91
g5
(dp92
sg44
I00
sbsg7
(g11
S'\x03\x00\x00\x00\x00\x00\x00\x00'
p93
tp94
Rp95
(i__main__
TreeNode
p96
(dp97
g5
(dp98
sg44
I00
sbsg7
(g11
S'\x04\x00\x00\x00\x00\x00\x00\x00'
p99
tp100
Rp101
(i__main__
TreeNode
p102
(dp103
g5
(dp104
sg44
I00
sbsg7
(g11
S'\x05\x00\x00\x00\x00\x00\x00\x00'
p105
tp106
Rp107
(i__main__
TreeNode
p108
(dp109
g5
(dp110
sg44
I00
sbsg7
(g11
S'\x06\x00\x00\x00\x00\x00\x00\x00'
p111
tp112
Rp113
(i__main__
TreeNode
p114
(dp115
g5
(dp116
sg44
I00
sbsI-1
(i__main__
TreeNode
p117
(dp118
g5
(dp119
sg44
I00
sbssg44
I87
sbsg7
(g11
S'\x04\x00\x00\x00\x00\x00\x00\x00'
p120
tp121
Rp122
(i__main__
TreeNode
p123
(dp124
g5
(dp125
sg44
I00
sbsg7
(g11
S'\x05\x00\x00\x00\x00\x00\x00\x00'
p126
tp127
Rp128
(i__main__
TreeNode
p129
(dp130
g5
(dp131
g7
(g11
S'\x01\x00\x00\x00\x00\x00\x00\x00'
p132
tp133
Rp134
(i__main__
TreeNode
p135
(dp136
g5
(dp137
sg44
I00
sbsg7
(g11
S'\x02\x00\x00\x00\x00\x00\x00\x00'
p138
tp139
Rp140
(i__main__
TreeNode
p141
(dp142
g5
(dp143
sg44
I00
sbsg7
(g11
S'\x03\x00\x00\x00\x00\x00\x00\x00'
p144
tp145
Rp146
(i__main__
TreeNode
p147
(dp148
g5
(dp149
sg44
I01
sbsg7
(g11
S'\x04\x00\x00\x00\x00\x00\x00\x00'
p150
tp151
Rp152
(i__main__
TreeNode
p153
(dp154
g5
(dp155
sg44
I00
sbsI-1
(i__main__
TreeNode
p156
(dp157
g5
(dp158
sg44
I00
sbssg44
I127
sbsg7
(g11
S'\x07\x00\x00\x00\x00\x00\x00\x00'
p159
tp160
Rp161
(i__main__
TreeNode
p162
(dp163
g5
(dp164
sg44
I01
sbsI-1
(i__main__
TreeNode
p165
(dp166
g5
(dp167
sg44
I00
sbssg44
I273
sbsI-1
(i__main__
TreeNode
p168
(dp169
g5
(dp170
sg44
I00
sbssg44
I165
sbsg7
(g11
S'\x02\x00\x00\x00\x00\x00\x00\x00'
p171
tp172
Rp173
(i__main__
TreeNode
p174
(dp175
g5
(dp176
sg44
I00
sbsg7
(g11
S'\x03\x00\x00\x00\x00\x00\x00\x00'
p177
tp178
Rp179
(i__main__
TreeNode
p180
(dp181
g5
(dp182
sg44
I01
sbsg7
(g11
S')\x00\x00\x00\x00\x00\x00\x00'
p183
tp184
Rp185
(i__main__
TreeNode
p186
(dp187
g5
(dp188
sg44
I01
sbsg7
(g11
S'\x0b\x00\x00\x00\x00\x00\x00\x00'
p189
tp190
Rp191
(i__main__
TreeNode
p192
(dp193
g5
(dp194
sg44
I01
sbsg7
(g11
S'/\x00\x00\x00\x00\x00\x00\x00'
p195
tp196
Rp197
(i__main__
TreeNode
p198
(dp199
g5
(dp200
sg44
I01
sbsg7
(g11
S'\x15\x00\x00\x00\x00\x00\x00\x00'
p201
tp202
Rp203
(i__main__
TreeNode
p204
(dp205
g5
(dp206
sg44
I01
sbsI-1
(i__main__
TreeNode
p207
(dp208
g5
(dp209
sg44
I00
sbssg44
I15
sbsg7
(g11
S'\x02\x00\x00\x00\x00\x00\x00\x00'
p210
tp211
Rp212
(i__main__
TreeNode
p213
(dp214
g5
(dp215
g7
(g11
S'\x01\x00\x00\x00\x00\x00\x00\x00'
p216
tp217
Rp218
(i__main__
TreeNode
p219
(dp220
g5
(dp221
g7
(g11
S'\x01\x00\x00\x00\x00\x00\x00\x00'
p222
tp223
Rp224
(i__main__
TreeNode
p225
(dp226
g5
(dp227
sg44
I00
sbsg7
(g11
S'\x02\x00\x00\x00\x00\x00\x00\x00'
p228
tp229
Rp230
(i__main__
TreeNode
p231
(dp232
g5
(dp233
sg44
I01
sbsg7
(g11
S'\x04\x00\x00\x00\x00\x00\x00\x00'
p234
tp235
Rp236
(i__main__
TreeNode
p237
(dp238
g5
(dp239
sg44
I00
sbsg7
(g11
S'\x05\x00\x00\x00\x00\x00\x00\x00'
p240
tp241
Rp242
(i__main__
TreeNode
p243
(dp244
g5
(dp245
sg44
I00
sbsI-1
(i__main__
TreeNode
p246
(dp247
g5
(dp248
sg44
I00
sbssg44
I81
sbsg7
(g11
S'\x02\x00\x00\x00\x00\x00\x00\x00'
p249
tp250
Rp251
(i__main__
TreeNode
p252
(dp253
g5
(dp254
sg44
I00
sbsg7
(g11
S'\x03\x00\x00\x00\x00\x00\x00\x00'
p255
tp256
Rp257
(i__main__
TreeNode
p258
(dp259
g5
(dp260
g7
(g11
S'\x01\x00\x00\x00\x00\x00\x00\x00'
p261
tp262
Rp263
(i__main__
TreeNode
p264
(dp265
g5
(dp266
sg44
I00
sbsg7
(g11
S'\x02\x00\x00\x00\x00\x00\x00\x00'
p267
tp268
Rp269
(i__main__
TreeNode
p270
(dp271
g5
(dp272
sg44
I01
sbsg7
(g11
S'\x03\x00\x00\x00\x00\x00\x00\x00'
p273
tp274
Rp275
(i__main__
TreeNode
p276
(dp277
g5
(dp278
g7
(g11
S'\x01\x00\x00\x00\x00\x00\x00\x00'
p279
tp280
Rp281
(i__main__
TreeNode
p282
(dp283
g5
(dp284
sg44
I01
sbsg7
(g11
S'\x02\x00\x00\x00\x00\x00\x00\x00'
p285
tp286
Rp287
(i__main__
TreeNode
p288
(dp289
g5
(dp290
sg44
I00
sbsI-1
(i__main__
TreeNode
p291
(dp292
g5
(dp293
sg44
I00
sbssg44
I128
sbsg7
(g11
S'\x04\x00\x00\x00\x00\x00\x00\x00'
p294
tp295
Rp296
(i__main__
TreeNode
p297
(dp298
g5
(dp299
sg44
I00
sbsg7
(g11
S'\x05\x00\x00\x00\x00\x00\x00\x00'
p300
tp301
Rp302
(i__main__
TreeNode
p303
(dp304
g5
(dp305
g7
(g11
S'\x01\x00\x00\x00\x00\x00\x00\x00'
p306
tp307
Rp308
(i__main__
TreeNode
p309
(dp310
g5
(dp311
sg44
I00
sbsg7
(g11
S'\x02\x00\x00\x00\x00\x00\x00\x00'
p312
tp313
Rp314
(i__main__
TreeNode
p315
(dp316
g5
(dp317
g7
(g11
S'\x01\x00\x00\x00\x00\x00\x00\x00'
p318
tp319
Rp320
(i__main__
TreeNode
p321
(dp322
g5
(dp323
sg44
I01
sbsg7
(g11
S'\x03\x00\x00\x00\x00\x00\x00\x00'
p324
tp325
Rp326
(i__main__
TreeNode
p327
(dp328
g5
(dp329
sg44
I00
sbsg7
(g11
S'\x04\x00\x00\x00\x00\x00\x00\x00'
p330
tp331
Rp332
(i__main__
TreeNode
p333
(dp334
g5
(dp335
sg44
I01
sbsg7
(g11
S'\x05\x00\x00\x00\x00\x00\x00\x00'
p336
tp337
Rp338
(i__main__
TreeNode
p339
(dp340
g5
(dp341
sg44
I01
sbsI-1
(i__main__
TreeNode
p342
(dp343
g5
(dp344
sg44
I01
sbssg44
I88
sbsg7
(g11
S'\x03\x00\x00\x00\x00\x00\x00\x00'
p345
tp346
Rp347
(i__main__
TreeNode
p348
(dp349
g5
(dp350
sg44
I01
sbsg7
(g11
S'\x04\x00\x00\x00\x00\x00\x00\x00'
p351
tp352
Rp353
(i__main__
TreeNode
p354
(dp355
g5
(dp356
sg44
I01
sbsI-1
(i__main__
TreeNode
p357
(dp358
g5
(dp359
sg44
I01
sbssg44
I129
sbsI-1
(i__main__
TreeNode
p360
(dp361
g5
(dp362
sg44
I00
sbssg44
I82
sbsg7
(g11
S'\x04\x00\x00\x00\x00\x00\x00\x00'
p363
tp364
Rp365
(i__main__
TreeNode
p366
(dp367
g5
(dp368
g7
(g11
S'\x01\x00\x00\x00\x00\x00\x00\x00'
p369
tp370
Rp371
(i__main__
TreeNode
p372
(dp373
g5
(dp374
sg44
I00
sbsg7
(g11
S'\x02\x00\x00\x00\x00\x00\x00\x00'
p375
tp376
Rp377
(i__main__
TreeNode
p378
(dp379
g5
(dp380
g7
(g11
S'\x01\x00\x00\x00\x00\x00\x00\x00'
p381
tp382
Rp383
(i__main__
TreeNode
p384
(dp385
g5
(dp386
sg44
I01
sbsg7
(g11
S'\x04\x00\x00\x00\x00\x00\x00\x00'
p387
tp388
Rp389
(i__main__
TreeNode
p390
(dp391
g5
(dp392
sg44
I00
sbsI-1
(i__main__
TreeNode
p393
(dp394
g5
(dp395
sg44
I00
sbssg44
I266
sbsg7
(g11
S'\x03\x00\x00\x00\x00\x00\x00\x00'
p396
tp397
Rp398
(i__main__
TreeNode
p399
(dp400
g5
(dp401
sg44
I01
sbsg7
(g11
S'\x04\x00\x00\x00\x00\x00\x00\x00'
p402
tp403
Rp404
(i__main__
TreeNode
p405
(dp406
g5
(dp407
sg44
I00
sbsg7
(g11
S'\x05\x00\x00\x00\x00\x00\x00\x00'
p408
tp409
Rp410
(i__main__
TreeNode
p411
(dp412
g5
(dp413
sg44
I00
sbsI-1
(i__main__
TreeNode
p414
(dp415
g5
(dp416
sg44
I00
sbssg44
I127
sbsg7
(g11
S'\x05\x00\x00\x00\x00\x00\x00\x00'
p417
tp418
Rp419
(i__main__
TreeNode
p420
(dp421
g5
(dp422
sg44
I01
sbsI-1
(i__main__
TreeNode
p423
(dp424
g5
(dp425
sg44
I00
sbssg44
I85
sbsg7
(g11
S'\x03\x00\x00\x00\x00\x00\x00\x00'
p426
tp427
Rp428
(i__main__
TreeNode
p429
(dp430
g5
(dp431
sg44
I00
sbsg7
(g11
S'\x04\x00\x00\x00\x00\x00\x00\x00'
p432
tp433
Rp434
(i__main__
TreeNode
p435
(dp436
g5
(dp437
g7
(g11
S'\x01\x00\x00\x00\x00\x00\x00\x00'
p438
tp439
Rp440
(i__main__
TreeNode
p441
(dp442
g5
(dp443
g7
(g11
S'\x01\x00\x00\x00\x00\x00\x00\x00'
p444
tp445
Rp446
(i__main__
TreeNode
p447
(dp448
g5
(dp449
sg44
I00
sbsg7
(g11
S'\x04\x00\x00\x00\x00\x00\x00\x00'
p450
tp451
Rp452
(i__main__
TreeNode
p453
(dp454
g5
(dp455
sg44
I01
sbsg7
(g11
S'\x05\x00\x00\x00\x00\x00\x00\x00'
p456
tp457
Rp458
(i__main__
TreeNode
p459
(dp460
g5
(dp461
sg44
I00
sbsI-1
(i__main__
TreeNode
p462
(dp463
g5
(dp464
sg44
I00
sbssg44
I84
sbsg7
(g11
S'\x02\x00\x00\x00\x00\x00\x00\x00'
p465
tp466
Rp467
(i__main__
TreeNode
p468
(dp469
g5
(dp470
sg44
I00
sbsg7
(g11
S'\x03\x00\x00\x00\x00\x00\x00\x00'
p471
tp472
Rp473
(i__main__
TreeNode
p474
(dp475
g5
(dp476
g7
(g11
S'\x01\x00\x00\x00\x00\x00\x00\x00'
p477
tp478
Rp479
(i__main__
TreeNode
p480
(dp481
g5
(dp482
sg44
I01
sbsg7
(g11
S'\x02\x00\x00\x00\x00\x00\x00\x00'
p483
tp484
Rp485
(i__main__
TreeNode
p486
(dp487
g5
(dp488
sg44
I01
sbsg7
(g11
S'\x03\x00\x00\x00\x00\x00\x00\x00'
p489
tp490
Rp491
(i__main__
TreeNode
p492
(dp493
g5
(dp494
sg44
I01
sbsg7
(g11
S'\x05\x00\x00\x00\x00\x00\x00\x00'
p495
tp496
Rp497
(i__main__
TreeNode
p498
(dp499
g5
(dp500
sg44
I00
sbsg7
(g11
S'\x06\x00\x00\x00\x00\x00\x00\x00'
p501
tp502
Rp503
(i__main__
TreeNode
p504
(dp505
g5
(dp506
sg44
I00
sbsI-1
(i__main__
TreeNode
p507
(dp508
g5
(dp509
sg44
I01
sbssg44
I267
sbsg7
(g11
S'\x04\x00\x00\x00\x00\x00\x00\x00'
p510
tp511
Rp512
(i__main__
TreeNode
p513
(dp514
g5
(dp515
sg44
I00
sbsg7
(g11
S'\x05\x00\x00\x00\x00\x00\x00\x00'
p516
tp517
Rp518
(i__main__
TreeNode
p519
(dp520
g5
(dp521
g7
(g11
S'\x01\x00\x00\x00\x00\x00\x00\x00'
p522
tp523
Rp524
(i__main__
TreeNode
p525
(dp526
g5
(dp527
sg44
I01
sbsg7
(g11
S'\x04\x00\x00\x00\x00\x00\x00\x00'
p528
tp529
Rp530
(i__main__
TreeNode
p531
(dp532
g5
(dp533
sg44
I00
sbsg7
(g11
S'\x05\x00\x00\x00\x00\x00\x00\x00'
p534
tp535
Rp536
(i__main__
TreeNode
p537
(dp538
g5
(dp539
sg44
I00
sbsI-1
(i__main__
TreeNode
p540
(dp541
g5
(dp542
sg44
I00
sbssg44
I266
sbsI-1
(i__main__
TreeNode
p543
(dp544
g5
(dp545
sg44
I00
sbssg44
I82
sbsg7
(g11
S'\x05\x00\x00\x00\x00\x00\x00\x00'
p546
tp547
Rp548
(i__main__
TreeNode
p549
(dp550
g5
(dp551
g7
(g11
S'\x01\x00\x00\x00\x00\x00\x00\x00'
p552
tp553
Rp554
(i__main__
TreeNode
p555
(dp556
g5
(dp557
g7
(g11
S'\x01\x00\x00\x00\x00\x00\x00\x00'
p558
tp559
Rp560
(i__main__
TreeNode
p561
(dp562
g5
(dp563
sg44
I00
sbsg7
(g11
S'\x02\x00\x00\x00\x00\x00\x00\x00'
p564
tp565
Rp566
(i__main__
TreeNode
p567
(dp568
g5
(dp569
sg44
I01
sbsg7
(g11
S'\x03\x00\x00\x00\x00\x00\x00\x00'
p570
tp571
Rp572
(i__main__
TreeNode
p573
(dp574
g5
(dp575
sg44
I00
sbsg7
(g11
S'\x05\x00\x00\x00\x00\x00\x00\x00'
p576
tp577
Rp578
(i__main__
TreeNode
p579
(dp580
g5
(dp581
sg44
I01
sbsg7
(g11
S'\x06\x00\x00\x00\x00\x00\x00\x00'
p582
tp583
Rp584
(i__main__
TreeNode
p585
(dp586
g5
(dp587
sg44
I00
sbsI-1
(i__main__
TreeNode
p588
(dp589
g5
(dp590
sg44
I00
sbssg44
I267
sbsg7
(g11
S'\x02\x00\x00\x00\x00\x00\x00\x00'
p591
tp592
Rp593
(i__main__
TreeNode
p594
(dp595
g5
(dp596
sg44
I01
sbsg7
(g11
S'\x03\x00\x00\x00\x00\x00\x00\x00'
p597
tp598
Rp599
(i__main__
TreeNode
p600
(dp601
g5
(dp602
sg44
I01
sbsg7
(g11
S'\x04\x00\x00\x00\x00\x00\x00\x00'
p603
tp604
Rp605
(i__main__
TreeNode
p606
(dp607
g5
(dp608
sg44
I00
sbsg7
(g11
S'\x05\x00\x00\x00\x00\x00\x00\x00'
p609
tp610
Rp611
(i__main__
TreeNode
p612
(dp613
g5
(dp614
g7
(g11
S'\x03\x00\x00\x00\x00\x00\x00\x00'
p615
tp616
Rp617
(i__main__
TreeNode
p618
(dp619
g5
(dp620
sg44
I01
sbsg7
(g11
S'\x04\x00\x00\x00\x00\x00\x00\x00'
p621
tp622
Rp623
(i__main__
TreeNode
p624
(dp625
g5
(dp626
sg44
I00
sbsg7
(g11
S'\x05\x00\x00\x00\x00\x00\x00\x00'
p627
tp628
Rp629
(i__main__
TreeNode
p630
(dp631
g5
(dp632
sg44
I01
sbsI-1
(i__main__
TreeNode
p633
(dp634
g5
(dp635
sg44
I01
sbssg44
I87
sbsg7
(g11
S'\x07\x00\x00\x00\x00\x00\x00\x00'
p636
tp637
Rp638
(i__main__
TreeNode
p639
(dp640
g5
(dp641
sg44
I00
sbsI-1
(i__main__
TreeNode
p642
(dp643
g5
(dp644
sg44
I00
sbssg44
I273
sbsg7
(g11
S'\x06\x00\x00\x00\x00\x00\x00\x00'
p645
tp646
Rp647
(i__main__
TreeNode
p648
(dp649
g5
(dp650
g7
(g11
S'\x01\x00\x00\x00\x00\x00\x00\x00'
p651
tp652
Rp653
(i__main__
TreeNode
p654
(dp655
g5
(dp656
sg44
I00
sbsg7
(g11
S'\x02\x00\x00\x00\x00\x00\x00\x00'
p657
tp658
Rp659
(i__main__
TreeNode
p660
(dp661
g5
(dp662
sg44
I01
sbsg7
(g11
S'\x03\x00\x00\x00\x00\x00\x00\x00'
p663
tp664
Rp665
(i__main__
TreeNode
p666
(dp667
g5
(dp668
sg44
I00
sbsg7
(g11
S'\x04\x00\x00\x00\x00\x00\x00\x00'
p669
tp670
Rp671
(i__main__
TreeNode
p672
(dp673
g5
(dp674
sg44
I00
sbsg7
(g11
S'\x06\x00\x00\x00\x00\x00\x00\x00'
p675
tp676
Rp677
(i__main__
TreeNode
p678
(dp679
g5
(dp680
sg44
I01
sbsI-1
(i__main__
TreeNode
p681
(dp682
g5
(dp683
sg44
I00
sbssg44
I272
sbsg7
(g11
S'\x07\x00\x00\x00\x00\x00\x00\x00'
p684
tp685
Rp686
(i__main__
TreeNode
p687
(dp688
g5
(dp689
g7
(g11
S'\x01\x00\x00\x00\x00\x00\x00\x00'
p690
tp691
Rp692
(i__main__
TreeNode
p693
(dp694
g5
(dp695
sg44
I01
sbsg7
(g11
S'\x02\x00\x00\x00\x00\x00\x00\x00'
p696
tp697
Rp698
(i__main__
TreeNode
p699
(dp700
g5
(dp701
sg44
I00
sbsg7
(g11
S'\x03\x00\x00\x00\x00\x00\x00\x00'
p702
tp703
Rp704
(i__main__
TreeNode
p705
(dp706
g5
(dp707
sg44
I01
sbsg7
(g11
S'\x04\x00\x00\x00\x00\x00\x00\x00'
p708
tp709
Rp710
(i__main__
TreeNode
p711
(dp712
g5
(dp713
sg44
I01
sbsI-1
(i__main__
TreeNode
p714
(dp715
g5
(dp716
sg44
I00
sbssg44
I129
sbsg7
(g11
S'\x08\x00\x00\x00\x00\x00\x00\x00'
p717
tp718
Rp719
(i__main__
TreeNode
p720
(dp721
g5
(dp722
sg44
I00
sbsg7
(g11
S'\t\x00\x00\x00\x00\x00\x00\x00'
p723
tp724
Rp725
(i__main__
TreeNode
p726
(dp727
g5
(dp728
g7
(g11
S'\x01\x00\x00\x00\x00\x00\x00\x00'
p729
tp730
Rp731
(i__main__
TreeNode
p732
(dp733
g5
(dp734
sg44
I00
sbsg7
(g11
S'\x02\x00\x00\x00\x00\x00\x00\x00'
p735
tp736
Rp737
(i__main__
TreeNode
p738
(dp739
g5
(dp740
sg44
I01
sbsg7
(g11
S'\x03\x00\x00\x00\x00\x00\x00\x00'
p741
tp742
Rp743
(i__main__
TreeNode
p744
(dp745
g5
(dp746
sg44
I00
sbsg7
(g11
S'\x05\x00\x00\x00\x00\x00\x00\x00'
p747
tp748
Rp749
(i__main__
TreeNode
p750
(dp751
g5
(dp752
sg44
I00
sbsg7
(g11
S'\x06\x00\x00\x00\x00\x00\x00\x00'
p753
tp754
Rp755
(i__main__
TreeNode
p756
(dp757
g5
(dp758
sg44
I00
sbsI-1
(i__main__
TreeNode
p759
(dp760
g5
(dp761
sg44
I00
sbssg44
I267
sbsg7
(g11
S'\n\x00\x00\x00\x00\x00\x00\x00'
p762
tp763
Rp764
(i__main__
TreeNode
p765
(dp766
g5
(dp767
g7
(g11
S'\x01\x00\x00\x00\x00\x00\x00\x00'
p768
tp769
Rp770
(i__main__
TreeNode
p771
(dp772
g5
(dp773
g7
(g11
S'\x01\x00\x00\x00\x00\x00\x00\x00'
p774
tp775
Rp776
(i__main__
TreeNode
p777
(dp778
g5
(dp779
g7
(g11
S'\x01\x00\x00\x00\x00\x00\x00\x00'
p780
tp781
Rp782
(i__main__
TreeNode
p783
(dp784
g5
(dp785
sg44
I00
sbsg7
(g11
S'\x02\x00\x00\x00\x00\x00\x00\x00'
p786
tp787
Rp788
(i__main__
TreeNode
p789
(dp790
g5
(dp791
sg44
I00
sbsg7
(g11
S'\x03\x00\x00\x00\x00\x00\x00\x00'
p792
tp793
Rp794
(i__main__
TreeNode
p795
(dp796
g5
(dp797
sg44
I00
sbsg7
(g11
S'\x04\x00\x00\x00\x00\x00\x00\x00'
p798
tp799
Rp800
(i__main__
TreeNode
p801
(dp802
g5
(dp803
g7
(g11
S'\x01\x00\x00\x00\x00\x00\x00\x00'
p804
tp805
Rp806
(i__main__
TreeNode
p807
(dp808
g5
(dp809
sg44
I00
sbsg7
(g11
S'\x02\x00\x00\x00\x00\x00\x00\x00'
p810
tp811
Rp812
(i__main__
TreeNode
p813
(dp814
g5
(dp815
sg44
I01
sbsg7
(g11
S'\x03\x00\x00\x00\x00\x00\x00\x00'
p816
tp817
Rp818
(i__main__
TreeNode
p819
(dp820
g5
(dp821
sg44
I01
sbsg7
(g11
S'\x04\x00\x00\x00\x00\x00\x00\x00'
p822
tp823
Rp824
(i__main__
TreeNode
p825
(dp826
g5
(dp827
sg44
I00
sbsg7
(g11
S'\x05\x00\x00\x00\x00\x00\x00\x00'
p828
tp829
Rp830
(i__main__
TreeNode
p831
(dp832
g5
(dp833
sg44
I00
sbsI-1
(i__main__
TreeNode
p834
(dp835
g5
(dp836
sg44
I00
sbssg44
I85
sbsg7
(g11
S'\x05\x00\x00\x00\x00\x00\x00\x00'
p837
tp838
Rp839
(i__main__
TreeNode
p840
(dp841
g5
(dp842
sg44
I00
sbsI-1
(i__main__
TreeNode
p843
(dp844
g5
(dp845
sg44
I00
sbssg44
I82
sbsg7
(g11
S'\x04\x00\x00\x00\x00\x00\x00\x00'
p846
tp847
Rp848
(i__main__
TreeNode
p849
(dp850
g5
(dp851
sg44
I01
sbsg7
(g11
S'\x06\x00\x00\x00\x00\x00\x00\x00'
p852
tp853
Rp854
(i__main__
TreeNode
p855
(dp856
g5
(dp857
sg44
I00
sbsI-1
(i__main__
TreeNode
p858
(dp859
g5
(dp860
sg44
I00
sbssg44
I133
sbsg7
(g11
S'\x02\x00\x00\x00\x00\x00\x00\x00'
p861
tp862
Rp863
(i__main__
TreeNode
p864
(dp865
g5
(dp866
sg44
I01
sbsg7
(g11
S'\x04\x00\x00\x00\x00\x00\x00\x00'
p867
tp868
Rp869
(i__main__
TreeNode
p870
(dp871
g5
(dp872
sg44
I00
sbsI-1
(i__main__
TreeNode
p873
(dp874
g5
(dp875
sg44
I00
sbssg44
I84
sbsg7
(g11
S'\x0b\x00\x00\x00\x00\x00\x00\x00'
p876
tp877
Rp878
(i__main__
TreeNode
p879
(dp880
g5
(dp881
sg44
I00
sbsg7
(g11
S'\x0c\x00\x00\x00\x00\x00\x00\x00'
p882
tp883
Rp884
(i__main__
TreeNode
p885
(dp886
g5
(dp887
sg44
I00
sbsg7
(g11
S'\r\x00\x00\x00\x00\x00\x00\x00'
p888
tp889
Rp890
(i__main__
TreeNode
p891
(dp892
g5
(dp893
g7
(g11
S'\x01\x00\x00\x00\x00\x00\x00\x00'
p894
tp895
Rp896
(i__main__
TreeNode
p897
(dp898
g5
(dp899
g7
(g11
S'\x01\x00\x00\x00\x00\x00\x00\x00'
p900
tp901
Rp902
(i__main__
TreeNode
p903
(dp904
g5
(dp905
sg44
I00
sbsg7
(g11
S'\x02\x00\x00\x00\x00\x00\x00\x00'
p906
tp907
Rp908
(i__main__
TreeNode
p909
(dp910
g5
(dp911
sg44
I01
sbsI-1
(i__main__
TreeNode
p912
(dp913
g5
(dp914
sg44
I00
sbssg44
I81
sbsg7
(g11
S'\x02\x00\x00\x00\x00\x00\x00\x00'
p915
tp916
Rp917
(i__main__
TreeNode
p918
(dp919
g5
(dp920
g7
(g11
S'\x02\x00\x00\x00\x00\x00\x00\x00'
p921
tp922
Rp923
(i__main__
TreeNode
p924
(dp925
g5
(dp926
sg44
I01
sbsg7
(g11
S'\x03\x00\x00\x00\x00\x00\x00\x00'
p927
tp928
Rp929
(i__main__
TreeNode
p930
(dp931
g5
(dp932
sg44
I01
sbsg7
(g11
S'\x04\x00\x00\x00\x00\x00\x00\x00'
p933
tp934
Rp935
(i__main__
TreeNode
p936
(dp937
g5
(dp938
sg44
I01
sbsg7
(g11
S'\x05\x00\x00\x00\x00\x00\x00\x00'
p939
tp940
Rp941
(i__main__
TreeNode
p942
(dp943
g5
(dp944
sg44
I00
sbsI-1
(i__main__
TreeNode
p945
(dp946
g5
(dp947
sg44
I01
sbssg44
I85
sbsg7
(g11
S'\x03\x00\x00\x00\x00\x00\x00\x00'
p948
tp949
Rp950
(i__main__
TreeNode
p951
(dp952
g5
(dp953
sg44
I01
sbsg7
(g11
S'\x04\x00\x00\x00\x00\x00\x00\x00'
p954
tp955
Rp956
(i__main__
TreeNode
p957
(dp958
g5
(dp959
sg44
I00
sbsg7
(g11
S'\x05\x00\x00\x00\x00\x00\x00\x00'
p960
tp961
Rp962
(i__main__
TreeNode
p963
(dp964
g5
(dp965
g7
(g11
S'\x01\x00\x00\x00\x00\x00\x00\x00'
p966
tp967
Rp968
(i__main__
TreeNode
p969
(dp970
g5
(dp971
sg44
I01
sbsg7
(g11
S'\x02\x00\x00\x00\x00\x00\x00\x00'
p972
tp973
Rp974
(i__main__
TreeNode
p975
(dp976
g5
(dp977
sg44
I00
sbsg7
(g11
S'\x05\x00\x00\x00\x00\x00\x00\x00'
p978
tp979
Rp980
(i__main__
TreeNode
p981
(dp982
g5
(dp983
sg44
I00
sbsI-1
(i__main__
TreeNode
p984
(dp985
g5
(dp986
sg44
I00
sbssg44
I127
sbsI-1
(i__main__
TreeNode
p987
(dp988
g5
(dp989
sg44
I01
sbssg44
I82
sbsg7
(g11
S'\x0e\x00\x00\x00\x00\x00\x00\x00'
p990
tp991
Rp992
(i__main__
TreeNode
p993
(dp994
g5
(dp995
sg44
I00
sbsg7
(g11
S'\x0f\x00\x00\x00\x00\x00\x00\x00'
p996
tp997
Rp998
(i__main__
TreeNode
p999
(dp1000
g5
(dp1001
g7
(g11
S'\x01\x00\x00\x00\x00\x00\x00\x00'
p1002
tp1003
Rp1004
(i__main__
TreeNode
p1005
(dp1006
g5
(dp1007
sg44
I01
sbsg7
(g11
S'\x02\x00\x00\x00\x00\x00\x00\x00'
p1008
tp1009
Rp1010
(i__main__
TreeNode
p1011
(dp1012
g5
(dp1013
sg44
I01
sbsg7
(g11
S'\x04\x00\x00\x00\x00\x00\x00\x00'
p1014
tp1015
Rp1016
(i__main__
TreeNode
p1017
(dp1018
g5
(dp1019
sg44
I00
sbsI-1
(i__main__
TreeNode
p1020
(dp1021
g5
(dp1022
sg44
I01
sbssg44
I272
sbsg7
(g11
S'\x10\x00\x00\x00\x00\x00\x00\x00'
p1023
tp1024
Rp1025
(i__main__
TreeNode
p1026
(dp1027
g5
(dp1028
sg44
I00
sbsg7
(g11
S'\x11\x00\x00\x00\x00\x00\x00\x00'
p1029
tp1030
Rp1031
(i__main__
TreeNode
p1032
(dp1033
g5
(dp1034
sg44
I01
sbsg7
(g11
S'\x12\x00\x00\x00\x00\x00\x00\x00'
p1035
tp1036
Rp1037
(i__main__
TreeNode
p1038
(dp1039
g5
(dp1040
sg44
I01
sbsg7
(g11
S'\x13\x00\x00\x00\x00\x00\x00\x00'
p1041
tp1042
Rp1043
(i__main__
TreeNode
p1044
(dp1045
g5
(dp1046
sg44
I00
sbsg7
(g11
S'\x14\x00\x00\x00\x00\x00\x00\x00'
p1047
tp1048
Rp1049
(i__main__
TreeNode
p1050
(dp1051
g5
(dp1052
g7
(g11
S'\x01\x00\x00\x00\x00\x00\x00\x00'
p1053
tp1054
Rp1055
(i__main__
TreeNode
p1056
(dp1057
g5
(dp1058
sg44
I01
sbsg7
(g11
S'\x02\x00\x00\x00\x00\x00\x00\x00'
p1059
tp1060
Rp1061
(i__main__
TreeNode
p1062
(dp1063
g5
(dp1064
sg44
I00
sbsg7
(g11
S'\x03\x00\x00\x00\x00\x00\x00\x00'
p1065
tp1066
Rp1067
(i__main__
TreeNode
p1068
(dp1069
g5
(dp1070
sg44
I00
sbsg7
(g11
S'\x04\x00\x00\x00\x00\x00\x00\x00'
p1071
tp1072
Rp1073
(i__main__
TreeNode
p1074
(dp1075
g5
(dp1076
sg44
I00
sbsg7
(g11
S'\x05\x00\x00\x00\x00\x00\x00\x00'
p1077
tp1078
Rp1079
(i__main__
TreeNode
p1080
(dp1081
g5
(dp1082
sg44
I01
sbsI-1
(i__main__
TreeNode
p1083
(dp1084
g5
(dp1085
sg44
I00
sbssg44
I88
sbsg7
(g11
S'\x15\x00\x00\x00\x00\x00\x00\x00'
p1086
tp1087
Rp1088
(i__main__
TreeNode
p1089
(dp1090
g5
(dp1091
sg44
I00
sbsI-1
(i__main__
TreeNode
p1092
(dp1093
g5
(dp1094
sg44
I00
sbssg44
I263
sbsg7
(g11
S'\x02\x00\x00\x00\x00\x00\x00\x00'
p1095
tp1096
Rp1097
(i__main__
TreeNode
p1098
(dp1099
g5
(dp1100
sg44
I00
sbsg7
(g11
S'\x03\x00\x00\x00\x00\x00\x00\x00'
p1101
tp1102
Rp1103
(i__main__
TreeNode
p1104
(dp1105
g5
(dp1106
g7
(g11
S'\x01\x00\x00\x00\x00\x00\x00\x00'
p1107
tp1108
Rp1109
(i__main__
TreeNode
p1110
(dp1111
g5
(dp1112
g7
(g11
S'\x12\x00\x00\x00\x00\x00\x00\x00'
p1113
tp1114
Rp1115
(i__main__
TreeNode
p1116
(dp1117
g5
(dp1118
sg44
I00
sbsg7
(g11
S'\x03\x00\x00\x00\x00\x00\x00\x00'
p1119
tp1120
Rp1121
(i__main__
TreeNode
p1122
(dp1123
g5
(dp1124
sg44
I01
sbsg7
(g11
S'\x05\x00\x00\x00\x00\x00\x00\x00'
p1125
tp1126
Rp1127
(i__main__
TreeNode
p1128
(dp1129
g5
(dp1130
sg44
I01
sbsI-1
(i__main__
TreeNode
p1131
(dp1132
g5
(dp1133
sg44
I00
sbsg7
(g11
S'\r\x00\x00\x00\x00\x00\x00\x00'
p1134
tp1135
Rp1136
(i__main__
TreeNode
p1137
(dp1138
g5
(dp1139
sg44
I00
sbssg44
I263
sbsg7
(g11
S'\x02\x00\x00\x00\x00\x00\x00\x00'
p1140
tp1141
Rp1142
(i__main__
TreeNode
p1143
(dp1144
g5
(dp1145
g7
(g11
S'\x01\x00\x00\x00\x00\x00\x00\x00'
p1146
tp1147
Rp1148
(i__main__
TreeNode
p1149
(dp1150
g5
(dp1151
sg44
I01
sbsg7
(g11
S'\x02\x00\x00\x00\x00\x00\x00\x00'
p1152
tp1153
Rp1154
(i__main__
TreeNode
p1155
(dp1156
g5
(dp1157
sg44
I01
sbsg7
(g11
S'\x03\x00\x00\x00\x00\x00\x00\x00'
p1158
tp1159
Rp1160
(i__main__
TreeNode
p1161
(dp1162
g5
(dp1163
sg44
I00
sbsg7
(g11
S'\x04\x00\x00\x00\x00\x00\x00\x00'
p1164
tp1165
Rp1166
(i__main__
TreeNode
p1167
(dp1168
g5
(dp1169
sg44
I00
sbsI-1
(i__main__
TreeNode
p1170
(dp1171
g5
(dp1172
sg44
I00
sbssg44
I86
sbsg7
(g11
S'\x03\x00\x00\x00\x00\x00\x00\x00'
p1173
tp1174
Rp1175
(i__main__
TreeNode
p1176
(dp1177
g5
(dp1178
g7
(g11
S'\x04\x00\x00\x00\x00\x00\x00\x00'
p1179
tp1180
Rp1181
(i__main__
TreeNode
p1182
(dp1183
g5
(dp1184
sg44
I00
sbsg7
(g11
S'\x05\x00\x00\x00\x00\x00\x00\x00'
p1185
tp1186
Rp1187
(i__main__
TreeNode
p1188
(dp1189
g5
(dp1190
sg44
I01
sbsI-1
(i__main__
TreeNode
p1191
(dp1192
g5
(dp1193
sg44
I00
sbssg44
I81
sbsg7
(g11
S'\x04\x00\x00\x00\x00\x00\x00\x00'
p1194
tp1195
Rp1196
(i__main__
TreeNode
p1197
(dp1198
g5
(dp1199
g7
(g11
S'\x01\x00\x00\x00\x00\x00\x00\x00'
p1200
tp1201
Rp1202
(i__main__
TreeNode
p1203
(dp1204
g5
(dp1205
sg44
I00
sbsg7
(g11
S'\x02\x00\x00\x00\x00\x00\x00\x00'
p1206
tp1207
Rp1208
(i__main__
TreeNode
p1209
(dp1210
g5
(dp1211
sg44
I00
sbsg7
(g11
S'\x03\x00\x00\x00\x00\x00\x00\x00'
p1212
tp1213
Rp1214
(i__main__
TreeNode
p1215
(dp1216
g5
(dp1217
sg44
I00
sbsg7
(g11
S'\x04\x00\x00\x00\x00\x00\x00\x00'
p1218
tp1219
Rp1220
(i__main__
TreeNode
p1221
(dp1222
g5
(dp1223
sg44
I00
sbsg7
(g11
S'\x05\x00\x00\x00\x00\x00\x00\x00'
p1224
tp1225
Rp1226
(i__main__
TreeNode
p1227
(dp1228
g5
(dp1229
sg44
I00
sbsg7
(g11
S'\x06\x00\x00\x00\x00\x00\x00\x00'
p1230
tp1231
Rp1232
(i__main__
TreeNode
p1233
(dp1234
g5
(dp1235
sg44
I00
sbsg7
(g11
S'\x07\x00\x00\x00\x00\x00\x00\x00'
p1236
tp1237
Rp1238
(i__main__
TreeNode
p1239
(dp1240
g5
(dp1241
sg44
I01
sbsI-1
(i__main__
TreeNode
p1242
(dp1243
g5
(dp1244
sg44
I00
sbssg44
I87
sbsg7
(g11
S'\x05\x00\x00\x00\x00\x00\x00\x00'
p1245
tp1246
Rp1247
(i__main__
TreeNode
p1248
(dp1249
g5
(dp1250
sg44
I01
sbsg7
(g11
S'\x06\x00\x00\x00\x00\x00\x00\x00'
p1251
tp1252
Rp1253
(i__main__
TreeNode
p1254
(dp1255
g5
(dp1256
sg44
I00
sbsI-1
(i__main__
TreeNode
p1257
(dp1258
g5
(dp1259
sg44
I00
sbssg44
I272
sbsg7
(g11
S'\x04\x00\x00\x00\x00\x00\x00\x00'
p1260
tp1261
Rp1262
(i__main__
TreeNode
p1263
(dp1264
g5
(dp1265
sg44
I00
sbsg7
(g11
S'\x05\x00\x00\x00\x00\x00\x00\x00'
p1266
tp1267
Rp1268
(i__main__
TreeNode
p1269
(dp1270
g5
(dp1271
sg44
I00
sbsg7
(g11
S'\x06\x00\x00\x00\x00\x00\x00\x00'
p1272
tp1273
Rp1274
(i__main__
TreeNode
p1275
(dp1276
g5
(dp1277
g7
(g11
S'\x01\x00\x00\x00\x00\x00\x00\x00'
p1278
tp1279
Rp1280
(i__main__
TreeNode
p1281
(dp1282
g5
(dp1283
g7
(g11
S'\x01\x00\x00\x00\x00\x00\x00\x00'
p1284
tp1285
Rp1286
(i__main__
TreeNode
p1287
(dp1288
g5
(dp1289
sg44
I00
sbsg7
(g11
S'\x02\x00\x00\x00\x00\x00\x00\x00'
p1290
tp1291
Rp1292
(i__main__
TreeNode
p1293
(dp1294
g5
(dp1295
g7
(g11
S'\x01\x00\x00\x00\x00\x00\x00\x00'
p1296
tp1297
Rp1298
(i__main__
TreeNode
p1299
(dp1300
g5
(dp1301
g7
(g11
S'\x01\x00\x00\x00\x00\x00\x00\x00'
p1302
tp1303
Rp1304
(i__main__
TreeNode
p1305
(dp1306
g5
(dp1307
sg44
I00
sbsg7
(g11
S'\x02\x00\x00\x00\x00\x00\x00\x00'
p1308
tp1309
Rp1310
(i__main__
TreeNode
p1311
(dp1312
g5
(dp1313
sg44
I01
sbsg7
(g11
S'\x03\x00\x00\x00\x00\x00\x00\x00'
p1314
tp1315
Rp1316
(i__main__
TreeNode
p1317
(dp1318
g5
(dp1319
sg44
I01
sbsg7
(g11
S'\x04\x00\x00\x00\x00\x00\x00\x00'
p1320
tp1321
Rp1322
(i__main__
TreeNode
p1323
(dp1324
g5
(dp1325
sg44
I00
sbsI-1
(i__main__
TreeNode
p1326
(dp1327
g5
(dp1328
sg44
I00
sbssg44
I84
sbsg7
(g11
S'\x02\x00\x00\x00\x00\x00\x00\x00'
p1329
tp1330
Rp1331
(i__main__
TreeNode
p1332
(dp1333
g5
(dp1334
sg44
I00
sbsg7
(g11
S'\x03\x00\x00\x00\x00\x00\x00\x00'
p1335
tp1336
Rp1337
(i__main__
TreeNode
p1338
(dp1339
g5
(dp1340
sg44
I00
sbsg7
(g11
S'\x04\x00\x00\x00\x00\x00\x00\x00'
p1341
tp1342
Rp1343
(i__main__
TreeNode
p1344
(dp1345
g5
(dp1346
sg44
I00
sbsg7
(g11
S'\x05\x00\x00\x00\x00\x00\x00\x00'
p1347
tp1348
Rp1349
(i__main__
TreeNode
p1350
(dp1351
g5
(dp1352
sg44
I01
sbsI-1
(i__main__
TreeNode
p1353
(dp1354
g5
(dp1355
sg44
I00
sbssg44
I82
sbsg7
(g11
S'\x03\x00\x00\x00\x00\x00\x00\x00'
p1356
tp1357
Rp1358
(i__main__
TreeNode
p1359
(dp1360
g5
(dp1361
g7
(g11
S'\x01\x00\x00\x00\x00\x00\x00\x00'
p1362
tp1363
Rp1364
(i__main__
TreeNode
p1365
(dp1366
g5
(dp1367
sg44
I00
sbsg7
(g11
S'\x02\x00\x00\x00\x00\x00\x00\x00'
p1368
tp1369
Rp1370
(i__main__
TreeNode
p1371
(dp1372
g5
(dp1373
sg44
I01
sbsg7
(g11
S'\x03\x00\x00\x00\x00\x00\x00\x00'
p1374
tp1375
Rp1376
(i__main__
TreeNode
p1377
(dp1378
g5
(dp1379
sg44
I01
sbsg7
(g11
S'\x04\x00\x00\x00\x00\x00\x00\x00'
p1380
tp1381
Rp1382
(i__main__
TreeNode
p1383
(dp1384
g5
(dp1385
sg44
I00
sbsg7
(g11
S'\x05\x00\x00\x00\x00\x00\x00\x00'
p1386
tp1387
Rp1388
(i__main__
TreeNode
p1389
(dp1390
g5
(dp1391
sg44
I01
sbsg7
(g11
S'\x07\x00\x00\x00\x00\x00\x00\x00'
p1392
tp1393
Rp1394
(i__main__
TreeNode
p1395
(dp1396
g5
(dp1397
g7
(g11
S'\x01\x00\x00\x00\x00\x00\x00\x00'
p1398
tp1399
Rp1400
(i__main__
TreeNode
p1401
(dp1402
g5
(dp1403
sg44
I00
sbsg7
(g11
S'\x02\x00\x00\x00\x00\x00\x00\x00'
p1404
tp1405
Rp1406
(i__main__
TreeNode
p1407
(dp1408
g5
(dp1409
sg44
I01
sbsI-1
(i__main__
TreeNode
p1410
(dp1411
g5
(dp1412
sg44
I00
sbssg44
I81
sbsI-1
(i__main__
TreeNode
p1413
(dp1414
g5
(dp1415
sg44
I01
sbssg44
I273
sbsg7
(g11
S'\x04\x00\x00\x00\x00\x00\x00\x00'
p1416
tp1417
Rp1418
(i__main__
TreeNode
p1419
(dp1420
g5
(dp1421
sg44
I01
sbsg7
(g11
S'\x05\x00\x00\x00\x00\x00\x00\x00'
p1422
tp1423
Rp1424
(i__main__
TreeNode
p1425
(dp1426
g5
(dp1427
sg44
I00
sbsI-1
(i__main__
TreeNode
p1428
(dp1429
g5
(dp1430
sg44
I00
sbssg44
I127
sbsg7
(g11
S'\x02\x00\x00\x00\x00\x00\x00\x00'
p1431
tp1432
Rp1433
(i__main__
TreeNode
p1434
(dp1435
g5
(dp1436
sg44
I01
sbsI-1
(i__main__
TreeNode
p1437
(dp1438
g5
(dp1439
sg44
I00
sbssg44
I4
sbsI-1
(i__main__
TreeNode
p1440
(dp1441
g5
(dp1442
sg44
I00
sbssg44
I271
sbsg7
(g11
S'\x02\x00\x00\x00\x00\x00\x00\x00'
p1443
tp1444
Rp1445
(i__main__
TreeNode
p1446
(dp1447
g5
(dp1448
g7
(g11
S'\x01\x00\x00\x00\x00\x00\x00\x00'
p1449
tp1450
Rp1451
(i__main__
TreeNode
p1452
(dp1453
g5
(dp1454
g7
(g11
S'\x01\x00\x00\x00\x00\x00\x00\x00'
p1455
tp1456
Rp1457
(i__main__
TreeNode
p1458
(dp1459
g5
(dp1460
sg44
I00
sbsg7
(g11
S'\x02\x00\x00\x00\x00\x00\x00\x00'
p1461
tp1462
Rp1463
(i__main__
TreeNode
p1464
(dp1465
g5
(dp1466
g7
(g11
S'\x01\x00\x00\x00\x00\x00\x00\x00'
p1467
tp1468
Rp1469
(i__main__
TreeNode
p1470
(dp1471
g5
(dp1472
sg44
I00
sbsg7
(g11
S'\x02\x00\x00\x00\x00\x00\x00\x00'
p1473
tp1474
Rp1475
(i__main__
TreeNode
p1476
(dp1477
g5
(dp1478
sg44
I01
sbsg7
(g11
S'\x03\x00\x00\x00\x00\x00\x00\x00'
p1479
tp1480
Rp1481
(i__main__
TreeNode
p1482
(dp1483
g5
(dp1484
sg44
I00
sbsg7
(g11
S'\x05\x00\x00\x00\x00\x00\x00\x00'
p1485
tp1486
Rp1487
(i__main__
TreeNode
p1488
(dp1489
g5
(dp1490
sg44
I01
sbsg7
(g11
S'\x06\x00\x00\x00\x00\x00\x00\x00'
p1491
tp1492
Rp1493
(i__main__
TreeNode
p1494
(dp1495
g5
(dp1496
sg44
I01
sbsI-1
(i__main__
TreeNode
p1497
(dp1498
g5
(dp1499
sg44
I01
sbssg44
I157
sbsg7
(g11
S'\x03\x00\x00\x00\x00\x00\x00\x00'
p1500
tp1501
Rp1502
(i__main__
TreeNode
p1503
(dp1504
g5
(dp1505
sg44
I01
sbsg7
(g11
S'\x04\x00\x00\x00\x00\x00\x00\x00'
p1506
tp1507
Rp1508
(i__main__
TreeNode
p1509
(dp1510
g5
(dp1511
g7
(g11
S'\x01\x00\x00\x00\x00\x00\x00\x00'
p1512
tp1513
Rp1514
(i__main__
TreeNode
p1515
(dp1516
g5
(dp1517
sg44
I00
sbsg7
(g11
S'\x02\x00\x00\x00\x00\x00\x00\x00'
p1518
tp1519
Rp1520
(i__main__
TreeNode
p1521
(dp1522
g5
(dp1523
sg44
I01
sbsg7
(g11
S'\x03\x00\x00\x00\x00\x00\x00\x00'
p1524
tp1525
Rp1526
(i__main__
TreeNode
p1527
(dp1528
g5
(dp1529
g7
(g11
S'\x01\x00\x00\x00\x00\x00\x00\x00'
p1530
tp1531
Rp1532
(i__main__
TreeNode
p1533
(dp1534
g5
(dp1535
sg44
I01
sbsg7
(g11
S'\x03\x00\x00\x00\x00\x00\x00\x00'
p1536
tp1537
Rp1538
(i__main__
TreeNode
p1539
(dp1540
g5
(dp1541
sg44
I00
sbsI-1
(i__main__
TreeNode
p1542
(dp1543
g5
(dp1544
sg44
I00
sbssg44
I90
sbsg7
(g11
S'\x04\x00\x00\x00\x00\x00\x00\x00'
p1545
tp1546
Rp1547
(i__main__
TreeNode
p1548
(dp1549
g5
(dp1550
sg44
I01
sbsg7
(g11
S'\x05\x00\x00\x00\x00\x00\x00\x00'
p1551
tp1552
Rp1553
(i__main__
TreeNode
p1554
(dp1555
g5
(dp1556
g7
(g11
S'\x01\x00\x00\x00\x00\x00\x00\x00'
p1557
tp1558
Rp1559
(i__main__
TreeNode
p1560
(dp1561
g5
(dp1562
sg44
I01
sbsg7
(g11
S'\x02\x00\x00\x00\x00\x00\x00\x00'
p1563
tp1564
Rp1565
(i__main__
TreeNode
p1566
(dp1567
g5
(dp1568
sg44
I01
sbsg7
(g11
S'\x03\x00\x00\x00\x00\x00\x00\x00'
p1569
tp1570
Rp1571
(i__main__
TreeNode
p1572
(dp1573
g5
(dp1574
sg44
I00
sbsI-1
(i__main__
TreeNode
p1575
(dp1576
g5
(dp1577
sg44
I01
sbssg44
I33
sbsg7
(g11
S'\x06\x00\x00\x00\x00\x00\x00\x00'
p1578
tp1579
Rp1580
(i__main__
TreeNode
p1581
(dp1582
g5
(dp1583
sg44
I01
sbsI-1
(i__main__
TreeNode
p1584
(dp1585
g5
(dp1586
sg44
I01
sbssg44
I139
sbsg7
(g11
S'\x05\x00\x00\x00\x00\x00\x00\x00'
p1587
tp1588
Rp1589
(i__main__
TreeNode
p1590
(dp1591
g5
(dp1592
sg44
I00
sbsg7
(g11
S'\x06\x00\x00\x00\x00\x00\x00\x00'
p1593
tp1594
Rp1595
(i__main__
TreeNode
p1596
(dp1597
g5
(dp1598
g7
(g11
S'\x01\x00\x00\x00\x00\x00\x00\x00'
p1599
tp1600
Rp1601
(i__main__
TreeNode
p1602
(dp1603
g5
(dp1604
sg44
I01
sbsg7
(g11
S'\x02\x00\x00\x00\x00\x00\x00\x00'
p1605
tp1606
Rp1607
(i__main__
TreeNode
p1608
(dp1609
g5
(dp1610
sg44
I01
sbsg7
(g11
S'\x03\x00\x00\x00\x00\x00\x00\x00'
p1611
tp1612
Rp1613
(i__main__
TreeNode
p1614
(dp1615
g5
(dp1616
sg44
I00
sbsg7
(g11
S'\x06\x00\x00\x00\x00\x00\x00\x00'
p1617
tp1618
Rp1619
(i__main__
TreeNode
p1620
(dp1621
g5
(dp1622
sg44
I01
sbsI-1
(i__main__
TreeNode
p1623
(dp1624
g5
(dp1625
sg44
I01
sbssg44
I23
sbsg7
(g11
S'\x07\x00\x00\x00\x00\x00\x00\x00'
p1626
tp1627
Rp1628
(i__main__
TreeNode
p1629
(dp1630
g5
(dp1631
g7
(g11
S'\x01\x00\x00\x00\x00\x00\x00\x00'
p1632
tp1633
Rp1634
(i__main__
TreeNode
p1635
(dp1636
g5
(dp1637
sg44
I01
sbsg7
(g11
S'\x02\x00\x00\x00\x00\x00\x00\x00'
p1638
tp1639
Rp1640
(i__main__
TreeNode
p1641
(dp1642
g5
(dp1643
sg44
I00
sbsg7
(g11
S'\x03\x00\x00\x00\x00\x00\x00\x00'
p1644
tp1645
Rp1646
(i__main__
TreeNode
p1647
(dp1648
g5
(dp1649
sg44
I00
sbsg7
(g11
S'\x05\x00\x00\x00\x00\x00\x00\x00'
p1650
tp1651
Rp1652
(i__main__
TreeNode
p1653
(dp1654
g5
(dp1655
sg44
I01
sbsI-1
(i__main__
TreeNode
p1656
(dp1657
g5
(dp1658
sg44
I01
sbssg44
I152
sbsg7
(g11
S'\x08\x00\x00\x00\x00\x00\x00\x00'
p1659
tp1660
Rp1661
(i__main__
TreeNode
p1662
(dp1663
g5
(dp1664
g7
(g11
S'\x01\x00\x00\x00\x00\x00\x00\x00'
p1665
tp1666
Rp1667
(i__main__
TreeNode
p1668
(dp1669
g5
(dp1670
sg44
I01
sbsg7
(g11
S'\x06\x00\x00\x00\x00\x00\x00\x00'
p1671
tp1672
Rp1673
(i__main__
TreeNode
p1674
(dp1675
g5
(dp1676
sg44
I00
sbsg7
(g11
S'\x08\x00\x00\x00\x00\x00\x00\x00'
p1677
tp1678
Rp1679
(i__main__
TreeNode
p1680
(dp1681
g5
(dp1682
sg44
I00
sbsg7
(g11
S'\x0f\x00\x00\x00\x00\x00\x00\x00'
p1683
tp1684
Rp1685
(i__main__
TreeNode
p1686
(dp1687
g5
(dp1688
sg44
I00
sbsg7
(g11
S'\x14\x00\x00\x00\x00\x00\x00\x00'
p1689
tp1690
Rp1691
(i__main__
TreeNode
p1692
(dp1693
g5
(dp1694
sg44
I01
sbsI-1
(i__main__
TreeNode
p1695
(dp1696
g5
(dp1697
sg44
I01
sbssg44
I1
sbsg7
(g11
S'\t\x00\x00\x00\x00\x00\x00\x00'
p1698
tp1699
Rp1700
(i__main__
TreeNode
p1701
(dp1702
g5
(dp1703
g7
(g11
S'\x01\x00\x00\x00\x00\x00\x00\x00'
p1704
tp1705
Rp1706
(i__main__
TreeNode
p1707
(dp1708
g5
(dp1709
sg44
I01
sbsg7
(g11
S'\n\x00\x00\x00\x00\x00\x00\x00'
p1710
tp1711
Rp1712
(i__main__
TreeNode
p1713
(dp1714
g5
(dp1715
sg44
I01
sbsg7
(g11
S'\x04\x00\x00\x00\x00\x00\x00\x00'
p1716
tp1717
Rp1718
(i__main__
TreeNode
p1719
(dp1720
g5
(dp1721
sg44
I00
sbsg7
(g11
S'\r\x00\x00\x00\x00\x00\x00\x00'
p1722
tp1723
Rp1724
(i__main__
TreeNode
p1725
(dp1726
g5
(dp1727
sg44
I01
sbsI-1
(i__main__
TreeNode
p1728
(dp1729
g5
(dp1730
sg44
I01
sbssg44
I1
sbsg7
(g11
S'\n\x00\x00\x00\x00\x00\x00\x00'
p1731
tp1732
Rp1733
(i__main__
TreeNode
p1734
(dp1735
g5
(dp1736
sg44
I01
sbsg7
(g11
S'\x0b\x00\x00\x00\x00\x00\x00\x00'
p1737
tp1738
Rp1739
(i__main__
TreeNode
p1740
(dp1741
g5
(dp1742
g7
(g11
S'\x01\x00\x00\x00\x00\x00\x00\x00'
p1743
tp1744
Rp1745
(i__main__
TreeNode
p1746
(dp1747
g5
(dp1748
sg44
I00
sbsg7
(g11
S'\x02\x00\x00\x00\x00\x00\x00\x00'
p1749
tp1750
Rp1751
(i__main__
TreeNode
p1752
(dp1753
g5
(dp1754
sg44
I01
sbsg7
(g11
S'\x03\x00\x00\x00\x00\x00\x00\x00'
p1755
tp1756
Rp1757
(i__main__
TreeNode
p1758
(dp1759
g5
(dp1760
sg44
I00
sbsg7
(g11
S'\x05\x00\x00\x00\x00\x00\x00\x00'
p1761
tp1762
Rp1763
(i__main__
TreeNode
p1764
(dp1765
g5
(dp1766
sg44
I01
sbsg7
(g11
S'\x06\x00\x00\x00\x00\x00\x00\x00'
p1767
tp1768
Rp1769
(i__main__
TreeNode
p1770
(dp1771
g5
(dp1772
sg44
I01
sbsI-1
(i__main__
TreeNode
p1773
(dp1774
g5
(dp1775
sg44
I01
sbssg44
I267
sbsg7
(g11
S'\x0c\x00\x00\x00\x00\x00\x00\x00'
p1776
tp1777
Rp1778
(i__main__
TreeNode
p1779
(dp1780
g5
(dp1781
g7
(g11
S'\x01\x00\x00\x00\x00\x00\x00\x00'
p1782
tp1783
Rp1784
(i__main__
TreeNode
p1785
(dp1786
g5
(dp1787
sg44
I01
sbsg7
(g11
S'\x02\x00\x00\x00\x00\x00\x00\x00'
p1788
tp1789
Rp1790
(i__main__
TreeNode
p1791
(dp1792
g5
(dp1793
sg44
I00
sbsg7
(g11
S'\x03\x00\x00\x00\x00\x00\x00\x00'
p1794
tp1795
Rp1796
(i__main__
TreeNode
p1797
(dp1798
g5
(dp1799
sg44
I00
sbsg7
(g11
S'\x05\x00\x00\x00\x00\x00\x00\x00'
p1800
tp1801
Rp1802
(i__main__
TreeNode
p1803
(dp1804
g5
(dp1805
sg44
I01
sbsI-1
(i__main__
TreeNode
p1806
(dp1807
g5
(dp1808
sg44
I00
sbssg44
I0
sbsg7
(g11
S'\r\x00\x00\x00\x00\x00\x00\x00'
p1809
tp1810
Rp1811
(i__main__
TreeNode
p1812
(dp1813
g5
(dp1814
sg44
I00
sbsg7
(g11
S'\x0e\x00\x00\x00\x00\x00\x00\x00'
p1815
tp1816
Rp1817
(i__main__
TreeNode
p1818
(dp1819
g5
(dp1820
sg44
I00
sbsg7
(g11
S'\x0f\x00\x00\x00\x00\x00\x00\x00'
p1821
tp1822
Rp1823
(i__main__
TreeNode
p1824
(dp1825
g5
(dp1826
sg44
I00
sbsg7
(g11
S'\x10\x00\x00\x00\x00\x00\x00\x00'
p1827
tp1828
Rp1829
(i__main__
TreeNode
p1830
(dp1831
g5
(dp1832
sg44
I01
sbsg7
(g11
S'\x11\x00\x00\x00\x00\x00\x00\x00'
p1833
tp1834
Rp1835
(i__main__
TreeNode
p1836
(dp1837
g5
(dp1838
sg44
I01
sbsg7
(g11
S'\x12\x00\x00\x00\x00\x00\x00\x00'
p1839
tp1840
Rp1841
(i__main__
TreeNode
p1842
(dp1843
g5
(dp1844
g7
(g11
S'\x02\x00\x00\x00\x00\x00\x00\x00'
p1845
tp1846
Rp1847
(i__main__
TreeNode
p1848
(dp1849
g5
(dp1850
sg44
I00
sbsg7
(g11
S'\x03\x00\x00\x00\x00\x00\x00\x00'
p1851
tp1852
Rp1853
(i__main__
TreeNode
p1854
(dp1855
g5
(dp1856
sg44
I01
sbsI-1
(i__main__
TreeNode
p1857
(dp1858
g5
(dp1859
sg44
I01
sbssg44
I0
sbsg7
(g11
S'\x13\x00\x00\x00\x00\x00\x00\x00'
p1860
tp1861
Rp1862
(i__main__
TreeNode
p1863
(dp1864
g5
(dp1865
sg44
I01
sbsg7
(g11
S'\x14\x00\x00\x00\x00\x00\x00\x00'
p1866
tp1867
Rp1868
(i__main__
TreeNode
p1869
(dp1870
g5
(dp1871
sg44
I01
sbsg7
(g11
S'\x15\x00\x00\x00\x00\x00\x00\x00'
p1872
tp1873
Rp1874
(i__main__
TreeNode
p1875
(dp1876
g5
(dp1877
sg44
I01
sbsg7
(g11
S'\x16\x00\x00\x00\x00\x00\x00\x00'
p1878
tp1879
Rp1880
(i__main__
TreeNode
p1881
(dp1882
g5
(dp1883
g7
(g11
S'\x01\x00\x00\x00\x00\x00\x00\x00'
p1884
tp1885
Rp1886
(i__main__
TreeNode
p1887
(dp1888
g5
(dp1889
sg44
I01
sbsg7
(g11
S'\x02\x00\x00\x00\x00\x00\x00\x00'
p1890
tp1891
Rp1892
(i__main__
TreeNode
p1893
(dp1894
g5
(dp1895
sg44
I01
sbsg7
(g11
S'\x03\x00\x00\x00\x00\x00\x00\x00'
p1896
tp1897
Rp1898
(i__main__
TreeNode
p1899
(dp1900
g5
(dp1901
sg44
I00
sbsg7
(g11
S'\x04\x00\x00\x00\x00\x00\x00\x00'
p1902
tp1903
Rp1904
(i__main__
TreeNode
p1905
(dp1906
g5
(dp1907
sg44
I01
sbsg7
(g11
S'\x05\x00\x00\x00\x00\x00\x00\x00'
p1908
tp1909
Rp1910
(i__main__
TreeNode
p1911
(dp1912
g5
(dp1913
sg44
I01
sbsI-1
(i__main__
TreeNode
p1914
(dp1915
g5
(dp1916
sg44
I01
sbssg44
I6
sbsg7
(g11
S'\x17\x00\x00\x00\x00\x00\x00\x00'
p1917
tp1918
Rp1919
(i__main__
TreeNode
p1920
(dp1921
g5
(dp1922
g7
(g11
S'\x02\x00\x00\x00\x00\x00\x00\x00'
p1923
tp1924
Rp1925
(i__main__
TreeNode
p1926
(dp1927
g5
(dp1928
sg44
I00
sbsg7
(g11
S'\x03\x00\x00\x00\x00\x00\x00\x00'
p1929
tp1930
Rp1931
(i__main__
TreeNode
p1932
(dp1933
g5
(dp1934
sg44
I00
sbsg7
(g11
S'\x04\x00\x00\x00\x00\x00\x00\x00'
p1935
tp1936
Rp1937
(i__main__
TreeNode
p1938
(dp1939
g5
(dp1940
sg44
I01
sbsg7
(g11
S'\x05\x00\x00\x00\x00\x00\x00\x00'
p1941
tp1942
Rp1943
(i__main__
TreeNode
p1944
(dp1945
g5
(dp1946
sg44
I01
sbsg7
(g11
S'\x06\x00\x00\x00\x00\x00\x00\x00'
p1947
tp1948
Rp1949
(i__main__
TreeNode
p1950
(dp1951
g5
(dp1952
sg44
I01
sbsI-1
(i__main__
TreeNode
p1953
(dp1954
g5
(dp1955
sg44
I01
sbssg44
I19
sbsg7
(g11
S'\x18\x00\x00\x00\x00\x00\x00\x00'
p1956
tp1957
Rp1958
(i__main__
TreeNode
p1959
(dp1960
g5
(dp1961
sg44
I00
sbsg7
(g11
S'\x19\x00\x00\x00\x00\x00\x00\x00'
p1962
tp1963
Rp1964
(i__main__
TreeNode
p1965
(dp1966
g5
(dp1967
sg44
I01
sbsg7
(g11
S'\x1b\x00\x00\x00\x00\x00\x00\x00'
p1968
tp1969
Rp1970
(i__main__
TreeNode
p1971
(dp1972
g5
(dp1973
sg44
I00
sbsg7
(g11
S'\x1c\x00\x00\x00\x00\x00\x00\x00'
p1974
tp1975
Rp1976
(i__main__
TreeNode
p1977
(dp1978
g5
(dp1979
sg44
I01
sbsg7
(g11
S'\x1d\x00\x00\x00\x00\x00\x00\x00'
p1980
tp1981
Rp1982
(i__main__
TreeNode
p1983
(dp1984
g5
(dp1985
g7
(g11
S'\x03\x00\x00\x00\x00\x00\x00\x00'
p1986
tp1987
Rp1988
(i__main__
TreeNode
p1989
(dp1990
g5
(dp1991
sg44
I01
sbsg7
(g11
S'\x04\x00\x00\x00\x00\x00\x00\x00'
p1992
tp1993
Rp1994
(i__main__
TreeNode
p1995
(dp1996
g5
(dp1997
sg44
I00
sbsg7
(g11
S'\x06\x00\x00\x00\x00\x00\x00\x00'
p1998
tp1999
Rp2000
(i__main__
TreeNode
p2001
(dp2002
g5
(dp2003
sg44
I01
sbsI-1
(i__main__
TreeNode
p2004
(dp2005
g5
(dp2006
sg44
I01
sbssg44
I17
sbsg7
(g11
S'\x1e\x00\x00\x00\x00\x00\x00\x00'
p2007
tp2008
Rp2009
(i__main__
TreeNode
p2010
(dp2011
g5
(dp2012
sg44
I01
sbsg7
(g11
S'\x1f\x00\x00\x00\x00\x00\x00\x00'
p2013
tp2014
Rp2015
(i__main__
TreeNode
p2016
(dp2017
g5
(dp2018
sg44
I01
sbsg7
(g11
S' \x00\x00\x00\x00\x00\x00\x00'
p2019
tp2020
Rp2021
(i__main__
TreeNode
p2022
(dp2023
g5
(dp2024
sg44
I01
sbsg7
(g11
S'!\x00\x00\x00\x00\x00\x00\x00'
p2025
tp2026
Rp2027
(i__main__
TreeNode
p2028
(dp2029
g5
(dp2030
sg44
I01
sbsg7
(g11
S'"\x00\x00\x00\x00\x00\x00\x00'
p2031
tp2032
Rp2033
(i__main__
TreeNode
p2034
(dp2035
g5
(dp2036
g7
(g11
S'\x01\x00\x00\x00\x00\x00\x00\x00'
p2037
tp2038
Rp2039
(i__main__
TreeNode
p2040
(dp2041
g5
(dp2042
sg44
I01
sbsg7
(g11
S'\x03\x00\x00\x00\x00\x00\x00\x00'
p2043
tp2044
Rp2045
(i__main__
TreeNode
p2046
(dp2047
g5
(dp2048
sg44
I00
sbsI-1
(i__main__
TreeNode
p2049
(dp2050
g5
(dp2051
sg44
I00
sbssg44
I0
sbsg7
(g11
S'$\x00\x00\x00\x00\x00\x00\x00'
p2052
tp2053
Rp2054
(i__main__
TreeNode
p2055
(dp2056
g5
(dp2057
sg44
I01
sbsg7
(g11
S'%\x00\x00\x00\x00\x00\x00\x00'
p2058
tp2059
Rp2060
(i__main__
TreeNode
p2061
(dp2062
g5
(dp2063
sg44
I01
sbsg7
(g11
S'&\x00\x00\x00\x00\x00\x00\x00'
p2064
tp2065
Rp2066
(i__main__
TreeNode
p2067
(dp2068
g5
(dp2069
sg44
I00
sbsg7
(g11
S"'\x00\x00\x00\x00\x00\x00\x00"
p2070
tp2071
Rp2072
(i__main__
TreeNode
p2073
(dp2074
g5
(dp2075
sg44
I00
sbsg7
(g11
S'+\x00\x00\x00\x00\x00\x00\x00'
p2076
tp2077
Rp2078
(i__main__
TreeNode
p2079
(dp2080
g5
(dp2081
sg44
I01
sbsg7
(g11
S',\x00\x00\x00\x00\x00\x00\x00'
p2082
tp2083
Rp2084
(i__main__
TreeNode
p2085
(dp2086
g5
(dp2087
sg44
I01
sbsg7
(g11
S'-\x00\x00\x00\x00\x00\x00\x00'
p2088
tp2089
Rp2090
(i__main__
TreeNode
p2091
(dp2092
g5
(dp2093
sg44
I01
sbsg7
(g11
S'.\x00\x00\x00\x00\x00\x00\x00'
p2094
tp2095
Rp2096
(i__main__
TreeNode
p2097
(dp2098
g5
(dp2099
sg44
I00
sbsg7
(g11
S'0\x00\x00\x00\x00\x00\x00\x00'
p2100
tp2101
Rp2102
(i__main__
TreeNode
p2103
(dp2104
g5
(dp2105
sg44
I01
sbsg7
(g11
S'2\x00\x00\x00\x00\x00\x00\x00'
p2106
tp2107
Rp2108
(i__main__
TreeNode
p2109
(dp2110
g5
(dp2111
sg44
I01
sbsI-1
(i__main__
TreeNode
p2112
(dp2113
g5
(dp2114
sg44
I00
sbssg44
I15
sbsg7
(g11
S'\x02\x00\x00\x00\x00\x00\x00\x00'
p2115
tp2116
Rp2117
(i__main__
TreeNode
p2118
(dp2119
g5
(dp2120
sg44
I01
sbsg7
(g11
S'\x03\x00\x00\x00\x00\x00\x00\x00'
p2121
tp2122
Rp2123
(i__main__
TreeNode
p2124
(dp2125
g5
(dp2126
sg44
I00
sbsg7
(g11
S'\x04\x00\x00\x00\x00\x00\x00\x00'
p2127
tp2128
Rp2129
(i__main__
TreeNode
p2130
(dp2131
g5
(dp2132
g7
(g11
S'\x02\x00\x00\x00\x00\x00\x00\x00'
p2133
tp2134
Rp2135
(i__main__
TreeNode
p2136
(dp2137
g5
(dp2138
g7
(g11
S'\x01\x00\x00\x00\x00\x00\x00\x00'
p2139
tp2140
Rp2141
(i__main__
TreeNode
p2142
(dp2143
g5
(dp2144
sg44
I00
sbsg7
(g11
S'\x02\x00\x00\x00\x00\x00\x00\x00'
p2145
tp2146
Rp2147
(i__main__
TreeNode
p2148
(dp2149
g5
(dp2150
sg44
I01
sbsg7
(g11
S'\x15\x00\x00\x00\x00\x00\x00\x00'
p2151
tp2152
Rp2153
(i__main__
TreeNode
p2154
(dp2155
g5
(dp2156
sg44
I00
sbsI-1
(i__main__
TreeNode
p2157
(dp2158
g5
(dp2159
sg44
I00
sbssg44
I1
sbsg7
(g11
S'\x03\x00\x00\x00\x00\x00\x00\x00'
p2160
tp2161
Rp2162
(i__main__
TreeNode
p2163
(dp2164
g5
(dp2165
sg44
I00
sbsg7
(g11
S'\x04\x00\x00\x00\x00\x00\x00\x00'
p2166
tp2167
Rp2168
(i__main__
TreeNode
p2169
(dp2170
g5
(dp2171
g7
(g11
S'\x01\x00\x00\x00\x00\x00\x00\x00'
p2172
tp2173
Rp2174
(i__main__
TreeNode
p2175
(dp2176
g5
(dp2177
sg44
I00
sbsg7
(g11
S'\x02\x00\x00\x00\x00\x00\x00\x00'
p2178
tp2179
Rp2180
(i__main__
TreeNode
p2181
(dp2182
g5
(dp2183
sg44
I00
sbsg7
(g11
S'\x08\x00\x00\x00\x00\x00\x00\x00'
p2184
tp2185
Rp2186
(i__main__
TreeNode
p2187
(dp2188
g5
(dp2189
sg44
I00
sbsg7
(g11
S'\x0b\x00\x00\x00\x00\x00\x00\x00'
p2190
tp2191
Rp2192
(i__main__
TreeNode
p2193
(dp2194
g5
(dp2195
sg44
I01
sbsg7
(g11
S'\x12\x00\x00\x00\x00\x00\x00\x00'
p2196
tp2197
Rp2198
(i__main__
TreeNode
p2199
(dp2200
g5
(dp2201
sg44
I00
sbsI-1
(i__main__
TreeNode
p2202
(dp2203
g5
(dp2204
sg44
I00
sbssg44
I1
sbsg7
(g11
S'\x06\x00\x00\x00\x00\x00\x00\x00'
p2205
tp2206
Rp2207
(i__main__
TreeNode
p2208
(dp2209
g5
(dp2210
sg44
I00
sbsg7
(g11
S'\x07\x00\x00\x00\x00\x00\x00\x00'
p2211
tp2212
Rp2213
(i__main__
TreeNode
p2214
(dp2215
g5
(dp2216
sg44
I00
sbsg7
(g11
S'\x08\x00\x00\x00\x00\x00\x00\x00'
p2217
tp2218
Rp2219
(i__main__
TreeNode
p2220
(dp2221
g5
(dp2222
sg44
I00
sbsg7
(g11
S'\t\x00\x00\x00\x00\x00\x00\x00'
p2223
tp2224
Rp2225
(i__main__
TreeNode
p2226
(dp2227
g5
(dp2228
sg44
I00
sbsg7
(g11
S'\n\x00\x00\x00\x00\x00\x00\x00'
p2229
tp2230
Rp2231
(i__main__
TreeNode
p2232
(dp2233
g5
(dp2234
sg44
I00
sbsg7
(g11
S'\x0b\x00\x00\x00\x00\x00\x00\x00'
p2235
tp2236
Rp2237
(i__main__
TreeNode
p2238
(dp2239
g5
(dp2240
sg44
I00
sbsg7
(g11
S'\x0c\x00\x00\x00\x00\x00\x00\x00'
p2241
tp2242
Rp2243
(i__main__
TreeNode
p2244
(dp2245
g5
(dp2246
sg44
I00
sbsg7
(g11
S'\x0e\x00\x00\x00\x00\x00\x00\x00'
p2247
tp2248
Rp2249
(i__main__
TreeNode
p2250
(dp2251
g5
(dp2252
sg44
I00
sbsg7
(g11
S'\x0f\x00\x00\x00\x00\x00\x00\x00'
p2253
tp2254
Rp2255
(i__main__
TreeNode
p2256
(dp2257
g5
(dp2258
sg44
I00
sbsg7
(g11
S'\x10\x00\x00\x00\x00\x00\x00\x00'
p2259
tp2260
Rp2261
(i__main__
TreeNode
p2262
(dp2263
g5
(dp2264
sg44
I00
sbsg7
(g11
S'\x11\x00\x00\x00\x00\x00\x00\x00'
p2265
tp2266
Rp2267
(i__main__
TreeNode
p2268
(dp2269
g5
(dp2270
sg44
I00
sbsg7
(g11
S'\x12\x00\x00\x00\x00\x00\x00\x00'
p2271
tp2272
Rp2273
(i__main__
TreeNode
p2274
(dp2275
g5
(dp2276
sg44
I00
sbsg7
(g11
S'\x13\x00\x00\x00\x00\x00\x00\x00'
p2277
tp2278
Rp2279
(i__main__
TreeNode
p2280
(dp2281
g5
(dp2282
sg44
I00
sbsg7
(g11
S'\x14\x00\x00\x00\x00\x00\x00\x00'
p2283
tp2284
Rp2285
(i__main__
TreeNode
p2286
(dp2287
g5
(dp2288
sg44
I00
sbsg7
(g11
S'\x15\x00\x00\x00\x00\x00\x00\x00'
p2289
tp2290
Rp2291
(i__main__
TreeNode
p2292
(dp2293
g5
(dp2294
sg44
I00
sbsg7
(g11
S'\x16\x00\x00\x00\x00\x00\x00\x00'
p2295
tp2296
Rp2297
(i__main__
TreeNode
p2298
(dp2299
g5
(dp2300
sg44
I00
sbsg7
(g11
S'\x17\x00\x00\x00\x00\x00\x00\x00'
p2301
tp2302
Rp2303
(i__main__
TreeNode
p2304
(dp2305
g5
(dp2306
sg44
I00
sbsg7
(g11
S'\x18\x00\x00\x00\x00\x00\x00\x00'
p2307
tp2308
Rp2309
(i__main__
TreeNode
p2310
(dp2311
g5
(dp2312
sg44
I00
sbsg7
(g11
S'\x19\x00\x00\x00\x00\x00\x00\x00'
p2313
tp2314
Rp2315
(i__main__
TreeNode
p2316
(dp2317
g5
(dp2318
sg44
I00
sbsg7
(g11
S'\x1a\x00\x00\x00\x00\x00\x00\x00'
p2319
tp2320
Rp2321
(i__main__
TreeNode
p2322
(dp2323
g5
(dp2324
sg44
I00
sbsg7
(g11
S'\x1c\x00\x00\x00\x00\x00\x00\x00'
p2325
tp2326
Rp2327
(i__main__
TreeNode
p2328
(dp2329
g5
(dp2330
sg44
I00
sbsg7
(g11
S'\x1e\x00\x00\x00\x00\x00\x00\x00'
p2331
tp2332
Rp2333
(i__main__
TreeNode
p2334
(dp2335
g5
(dp2336
sg44
I00
sbsg7
(g11
S'\x1f\x00\x00\x00\x00\x00\x00\x00'
p2337
tp2338
Rp2339
(i__main__
TreeNode
p2340
(dp2341
g5
(dp2342
sg44
I00
sbsg7
(g11
S' \x00\x00\x00\x00\x00\x00\x00'
p2343
tp2344
Rp2345
(i__main__
TreeNode
p2346
(dp2347
g5
(dp2348
sg44
I00
sbsg7
(g11
S'!\x00\x00\x00\x00\x00\x00\x00'
p2349
tp2350
Rp2351
(i__main__
TreeNode
p2352
(dp2353
g5
(dp2354
sg44
I00
sbsg7
(g11
S'"\x00\x00\x00\x00\x00\x00\x00'
p2355
tp2356
Rp2357
(i__main__
TreeNode
p2358
(dp2359
g5
(dp2360
sg44
I00
sbsg7
(g11
S'#\x00\x00\x00\x00\x00\x00\x00'
p2361
tp2362
Rp2363
(i__main__
TreeNode
p2364
(dp2365
g5
(dp2366
sg44
I00
sbsg7
(g11
S'$\x00\x00\x00\x00\x00\x00\x00'
p2367
tp2368
Rp2369
(i__main__
TreeNode
p2370
(dp2371
g5
(dp2372
sg44
I01
sbsg7
(g11
S'&\x00\x00\x00\x00\x00\x00\x00'
p2373
tp2374
Rp2375
(i__main__
TreeNode
p2376
(dp2377
g5
(dp2378
sg44
I00
sbsg7
(g11
S"'\x00\x00\x00\x00\x00\x00\x00"
p2379
tp2380
Rp2381
(i__main__
TreeNode
p2382
(dp2383
g5
(dp2384
sg44
I00
sbsg7
(g11
S'(\x00\x00\x00\x00\x00\x00\x00'
p2385
tp2386
Rp2387
(i__main__
TreeNode
p2388
(dp2389
g5
(dp2390
sg44
I00
sbsg7
(g11
S'*\x00\x00\x00\x00\x00\x00\x00'
p2391
tp2392
Rp2393
(i__main__
TreeNode
p2394
(dp2395
g5
(dp2396
sg44
I00
sbsg7
(g11
S'+\x00\x00\x00\x00\x00\x00\x00'
p2397
tp2398
Rp2399
(i__main__
TreeNode
p2400
(dp2401
g5
(dp2402
sg44
I00
sbsI-1
(i__main__
TreeNode
p2403
(dp2404
g5
(dp2405
sg44
I00
sbssg44
I15
sbsg7
(g11
S'\x05\x00\x00\x00\x00\x00\x00\x00'
p2406
tp2407
Rp2408
(i__main__
TreeNode
p2409
(dp2410
g5
(dp2411
sg44
I00
sbsI-1
(i__main__
TreeNode
p2412
(dp2413
g5
(dp2414
sg44
I00
sbssg44
I167
sbsg7
(g11
S'\x03\x00\x00\x00\x00\x00\x00\x00'
p2415
tp2416
Rp2417
(i__main__
TreeNode
p2418
(dp2419
g5
(dp2420
g7
(g11
S'\x01\x00\x00\x00\x00\x00\x00\x00'
p2421
tp2422
Rp2423
(i__main__
TreeNode
p2424
(dp2425
g5
(dp2426
g7
(g11
S'\x01\x00\x00\x00\x00\x00\x00\x00'
p2427
tp2428
Rp2429
(i__main__
TreeNode
p2430
(dp2431
g5
(dp2432
g7
(g11
S'\x01\x00\x00\x00\x00\x00\x00\x00'
p2433
tp2434
Rp2435
(i__main__
TreeNode
p2436
(dp2437
g5
(dp2438
g7
(g11
S'\x01\x00\x00\x00\x00\x00\x00\x00'
p2439
tp2440
Rp2441
(i__main__
TreeNode
p2442
(dp2443
g5
(dp2444
g7
(g11
S'\x01\x00\x00\x00\x00\x00\x00\x00'
p2445
tp2446
Rp2447
(i__main__
TreeNode
p2448
(dp2449
g5
(dp2450
g7
(g11
S'\x01\x00\x00\x00\x00\x00\x00\x00'
p2451
tp2452
Rp2453
(i__main__
TreeNode
p2454
(dp2455
g5
(dp2456
sg44
I00
sbsg7
(g11
S'\x02\x00\x00\x00\x00\x00\x00\x00'
p2457
tp2458
Rp2459
(i__main__
TreeNode
p2460
(dp2461
g5
(dp2462
sg44
I01
sbsg7
(g11
S'\x03\x00\x00\x00\x00\x00\x00\x00'
p2463
tp2464
Rp2465
(i__main__
TreeNode
p2466
(dp2467
g5
(dp2468
sg44
I01
sbsI-1
(i__main__
TreeNode
p2469
(dp2470
g5
(dp2471
sg44
I00
sbssg44
I2
sbsg7
(g11
S'\x02\x00\x00\x00\x00\x00\x00\x00'
p2472
tp2473
Rp2474
(i__main__
TreeNode
p2475
(dp2476
g5
(dp2477
sg44
I00
sbsg7
(g11
S'\x03\x00\x00\x00\x00\x00\x00\x00'
p2478
tp2479
Rp2480
(i__main__
TreeNode
p2481
(dp2482
g5
(dp2483
sg44
I00
sbsg7
(g11
S'\x04\x00\x00\x00\x00\x00\x00\x00'
p2484
tp2485
Rp2486
(i__main__
TreeNode
p2487
(dp2488
g5
(dp2489
sg44
I00
sbsg7
(g11
S'\x05\x00\x00\x00\x00\x00\x00\x00'
p2490
tp2491
Rp2492
(i__main__
TreeNode
p2493
(dp2494
g5
(dp2495
sg44
I00
sbsI-1
(i__main__
TreeNode
p2496
(dp2497
g5
(dp2498
sg44
I00
sbssg44
I129
sbsg7
(g11
S'\x02\x00\x00\x00\x00\x00\x00\x00'
p2499
tp2500
Rp2501
(i__main__
TreeNode
p2502
(dp2503
g5
(dp2504
g7
(g11
S'\x01\x00\x00\x00\x00\x00\x00\x00'
p2505
tp2506
Rp2507
(i__main__
TreeNode
p2508
(dp2509
g5
(dp2510
g7
(g11
S'\x01\x00\x00\x00\x00\x00\x00\x00'
p2511
tp2512
Rp2513
(i__main__
TreeNode
p2514
(dp2515
g5
(dp2516
sg44
I00
sbsg7
(g11
S'\x02\x00\x00\x00\x00\x00\x00\x00'
p2517
tp2518
Rp2519
(i__main__
TreeNode
p2520
(dp2521
g5
(dp2522
g7
(g11
S'\x02\x00\x00\x00\x00\x00\x00\x00'
p2523
tp2524
Rp2525
(i__main__
TreeNode
p2526
(dp2527
g5
(dp2528
sg44
I00
sbsg7
(g11
S'\x03\x00\x00\x00\x00\x00\x00\x00'
p2529
tp2530
Rp2531
(i__main__
TreeNode
p2532
(dp2533
g5
(dp2534
sg44
I00
sbsg7
(g11
S'\x04\x00\x00\x00\x00\x00\x00\x00'
p2535
tp2536
Rp2537
(i__main__
TreeNode
p2538
(dp2539
g5
(dp2540
sg44
I00
sbsg7
(g11
S'\x05\x00\x00\x00\x00\x00\x00\x00'
p2541
tp2542
Rp2543
(i__main__
TreeNode
p2544
(dp2545
g5
(dp2546
sg44
I00
sbsI-1
(i__main__
TreeNode
p2547
(dp2548
g5
(dp2549
sg44
I00
sbssg44
I85
sbsg7
(g11
S'\x03\x00\x00\x00\x00\x00\x00\x00'
p2550
tp2551
Rp2552
(i__main__
TreeNode
p2553
(dp2554
g5
(dp2555
sg44
I00
sbsg7
(g11
S'\x04\x00\x00\x00\x00\x00\x00\x00'
p2556
tp2557
Rp2558
(i__main__
TreeNode
p2559
(dp2560
g5
(dp2561
g7
(g11
S'\x01\x00\x00\x00\x00\x00\x00\x00'
p2562
tp2563
Rp2564
(i__main__
TreeNode
p2565
(dp2566
g5
(dp2567
sg44
I00
sbsg7
(g11
S'\x02\x00\x00\x00\x00\x00\x00\x00'
p2568
tp2569
Rp2570
(i__main__
TreeNode
p2571
(dp2572
g5
(dp2573
sg44
I00
sbsg7
(g11
S'\x03\x00\x00\x00\x00\x00\x00\x00'
p2574
tp2575
Rp2576
(i__main__
TreeNode
p2577
(dp2578
g5
(dp2579
sg44
I00
sbsg7
(g11
S'\x04\x00\x00\x00\x00\x00\x00\x00'
p2580
tp2581
Rp2582
(i__main__
TreeNode
p2583
(dp2584
g5
(dp2585
g7
(g11
S'\x01\x00\x00\x00\x00\x00\x00\x00'
p2586
tp2587
Rp2588
(i__main__
TreeNode
p2589
(dp2590
g5
(dp2591
sg44
I00
sbsg7
(g11
S'\x02\x00\x00\x00\x00\x00\x00\x00'
p2592
tp2593
Rp2594
(i__main__
TreeNode
p2595
(dp2596
g5
(dp2597
sg44
I01
sbsg7
(g11
S'\x03\x00\x00\x00\x00\x00\x00\x00'
p2598
tp2599
Rp2600
(i__main__
TreeNode
p2601
(dp2602
g5
(dp2603
sg44
I00
sbsg7
(g11
S'\x04\x00\x00\x00\x00\x00\x00\x00'
p2604
tp2605
Rp2606
(i__main__
TreeNode
p2607
(dp2608
g5
(dp2609
sg44
I00
sbsg7
(g11
S'\x05\x00\x00\x00\x00\x00\x00\x00'
p2610
tp2611
Rp2612
(i__main__
TreeNode
p2613
(dp2614
g5
(dp2615
sg44
I00
sbsI-1
(i__main__
TreeNode
p2616
(dp2617
g5
(dp2618
sg44
I00
sbssg44
I88
sbsg7
(g11
S'\x05\x00\x00\x00\x00\x00\x00\x00'
p2619
tp2620
Rp2621
(i__main__
TreeNode
p2622
(dp2623
g5
(dp2624
sg44
I00
sbsI-1
(i__main__
TreeNode
p2625
(dp2626
g5
(dp2627
sg44
I00
sbssg44
I128
sbsg7
(g11
S'\x05\x00\x00\x00\x00\x00\x00\x00'
p2628
tp2629
Rp2630
(i__main__
TreeNode
p2631
(dp2632
g5
(dp2633
g7
(g11
S'\x01\x00\x00\x00\x00\x00\x00\x00'
p2634
tp2635
Rp2636
(i__main__
TreeNode
p2637
(dp2638
g5
(dp2639
sg44
I00
sbsg7
(g11
S'\x02\x00\x00\x00\x00\x00\x00\x00'
p2640
tp2641
Rp2642
(i__main__
TreeNode
p2643
(dp2644
g5
(dp2645
g7
(g11
S'\x01\x00\x00\x00\x00\x00\x00\x00'
p2646
tp2647
Rp2648
(i__main__
TreeNode
p2649
(dp2650
g5
(dp2651
sg44
I01
sbsg7
(g11
S'\x02\x00\x00\x00\x00\x00\x00\x00'
p2652
tp2653
Rp2654
(i__main__
TreeNode
p2655
(dp2656
g5
(dp2657
sg44
I00
sbsg7
(g11
S'\x03\x00\x00\x00\x00\x00\x00\x00'
p2658
tp2659
Rp2660
(i__main__
TreeNode
p2661
(dp2662
g5
(dp2663
sg44
I00
sbsg7
(g11
S'\x04\x00\x00\x00\x00\x00\x00\x00'
p2664
tp2665
Rp2666
(i__main__
TreeNode
p2667
(dp2668
g5
(dp2669
sg44
I00
sbsg7
(g11
S'\x05\x00\x00\x00\x00\x00\x00\x00'
p2670
tp2671
Rp2672
(i__main__
TreeNode
p2673
(dp2674
g5
(dp2675
sg44
I00
sbsI-1
(i__main__
TreeNode
p2676
(dp2677
g5
(dp2678
sg44
I00
sbssg44
I85
sbsg7
(g11
S'\x03\x00\x00\x00\x00\x00\x00\x00'
p2679
tp2680
Rp2681
(i__main__
TreeNode
p2682
(dp2683
g5
(dp2684
sg44
I00
sbsg7
(g11
S'\x04\x00\x00\x00\x00\x00\x00\x00'
p2685
tp2686
Rp2687
(i__main__
TreeNode
p2688
(dp2689
g5
(dp2690
sg44
I00
sbsg7
(g11
S'\x05\x00\x00\x00\x00\x00\x00\x00'
p2691
tp2692
Rp2693
(i__main__
TreeNode
p2694
(dp2695
g5
(dp2696
g7
(g11
S'\x02\x00\x00\x00\x00\x00\x00\x00'
p2697
tp2698
Rp2699
(i__main__
TreeNode
p2700
(dp2701
g5
(dp2702
sg44
I00
sbsg7
(g11
S'\x03\x00\x00\x00\x00\x00\x00\x00'
p2703
tp2704
Rp2705
(i__main__
TreeNode
p2706
(dp2707
g5
(dp2708
g7
(g11
S'\x01\x00\x00\x00\x00\x00\x00\x00'
p2709
tp2710
Rp2711
(i__main__
TreeNode
p2712
(dp2713
g5
(dp2714
sg44
I00
sbsg7
(g11
S'\x02\x00\x00\x00\x00\x00\x00\x00'
p2715
tp2716
Rp2717
(i__main__
TreeNode
p2718
(dp2719
g5
(dp2720
sg44
I00
sbsg7
(g11
S'\x03\x00\x00\x00\x00\x00\x00\x00'
p2721
tp2722
Rp2723
(i__main__
TreeNode
p2724
(dp2725
g5
(dp2726
sg44
I01
sbsg7
(g11
S'\x04\x00\x00\x00\x00\x00\x00\x00'
p2727
tp2728
Rp2729
(i__main__
TreeNode
p2730
(dp2731
g5
(dp2732
sg44
I01
sbsI-1
(i__main__
TreeNode
p2733
(dp2734
g5
(dp2735
sg44
I00
sbssg44
I84
sbsg7
(g11
S'\x04\x00\x00\x00\x00\x00\x00\x00'
p2736
tp2737
Rp2738
(i__main__
TreeNode
p2739
(dp2740
g5
(dp2741
sg44
I00
sbsg7
(g11
S'\x05\x00\x00\x00\x00\x00\x00\x00'
p2742
tp2743
Rp2744
(i__main__
TreeNode
p2745
(dp2746
g5
(dp2747
sg44
I01
sbsI-1
(i__main__
TreeNode
p2748
(dp2749
g5
(dp2750
sg44
I00
sbssg44
I127
sbsg7
(g11
S'\x06\x00\x00\x00\x00\x00\x00\x00'
p2751
tp2752
Rp2753
(i__main__
TreeNode
p2754
(dp2755
g5
(dp2756
sg44
I00
sbsg7
(g11
S'\x07\x00\x00\x00\x00\x00\x00\x00'
p2757
tp2758
Rp2759
(i__main__
TreeNode
p2760
(dp2761
g5
(dp2762
sg44
I00
sbsI-1
(i__main__
TreeNode
p2763
(dp2764
g5
(dp2765
sg44
I00
sbssg44
I273
sbsg7
(g11
S'\x06\x00\x00\x00\x00\x00\x00\x00'
p2766
tp2767
Rp2768
(i__main__
TreeNode
p2769
(dp2770
g5
(dp2771
sg44
I00
sbsg7
(g11
S'\x07\x00\x00\x00\x00\x00\x00\x00'
p2772
tp2773
Rp2774
(i__main__
TreeNode
p2775
(dp2776
g5
(dp2777
sg44
I00
sbsI-1
(i__main__
TreeNode
p2778
(dp2779
g5
(dp2780
sg44
I00
sbssg44
I87
sbsg7
(g11
S'\x06\x00\x00\x00\x00\x00\x00\x00'
p2781
tp2782
Rp2783
(i__main__
TreeNode
p2784
(dp2785
g5
(dp2786
sg44
I01
sbsg7
(g11
S'\x08\x00\x00\x00\x00\x00\x00\x00'
p2787
tp2788
Rp2789
(i__main__
TreeNode
p2790
(dp2791
g5
(dp2792
sg44
I01
sbsg7
(g11
S'\x0c\x00\x00\x00\x00\x00\x00\x00'
p2793
tp2794
Rp2795
(i__main__
TreeNode
p2796
(dp2797
g5
(dp2798
sg44
I00
sbsg7
(g11
S'\x1a\x00\x00\x00\x00\x00\x00\x00'
p2799
tp2800
Rp2801
(i__main__
TreeNode
p2802
(dp2803
g5
(dp2804
sg44
I01
sbsg7
(g11
S'\x1b\x00\x00\x00\x00\x00\x00\x00'
p2805
tp2806
Rp2807
(i__main__
TreeNode
p2808
(dp2809
g5
(dp2810
sg44
I01
sbsI-1
(i__main__
TreeNode
p2811
(dp2812
g5
(dp2813
sg44
I00
sbssg44
I15
sbsg7
(g11
S'\x03\x00\x00\x00\x00\x00\x00\x00'
p2814
tp2815
Rp2816
(i__main__
TreeNode
p2817
(dp2818
g5
(dp2819
g7
(g11
S'\x01\x00\x00\x00\x00\x00\x00\x00'
p2820
tp2821
Rp2822
(i__main__
TreeNode
p2823
(dp2824
g5
(dp2825
g7
(g11
S'\x01\x00\x00\x00\x00\x00\x00\x00'
p2826
tp2827
Rp2828
(i__main__
TreeNode
p2829
(dp2830
g5
(dp2831
sg44
I00
sbsg7
(g11
S'\x02\x00\x00\x00\x00\x00\x00\x00'
p2832
tp2833
Rp2834
(i__main__
TreeNode
p2835
(dp2836
g5
(dp2837
sg44
I00
sbsg7
(g11
S'\x03\x00\x00\x00\x00\x00\x00\x00'
p2838
tp2839
Rp2840
(i__main__
TreeNode
p2841
(dp2842
g5
(dp2843
sg44
I00
sbsg7
(g11
S'\x04\x00\x00\x00\x00\x00\x00\x00'
p2844
tp2845
Rp2846
(i__main__
TreeNode
p2847
(dp2848
g5
(dp2849
sg44
I00
sbsg7
(g11
S'\x05\x00\x00\x00\x00\x00\x00\x00'
p2850
tp2851
Rp2852
(i__main__
TreeNode
p2853
(dp2854
g5
(dp2855
sg44
I00
sbsI-1
(i__main__
TreeNode
p2856
(dp2857
g5
(dp2858
sg44
I00
sbssg44
I85
sbsg7
(g11
S'\x02\x00\x00\x00\x00\x00\x00\x00'
p2859
tp2860
Rp2861
(i__main__
TreeNode
p2862
(dp2863
g5
(dp2864
sg44
I00
sbsg7
(g11
S'\x03\x00\x00\x00\x00\x00\x00\x00'
p2865
tp2866
Rp2867
(i__main__
TreeNode
p2868
(dp2869
g5
(dp2870
sg44
I00
sbsg7
(g11
S'\x04\x00\x00\x00\x00\x00\x00\x00'
p2871
tp2872
Rp2873
(i__main__
TreeNode
p2874
(dp2875
g5
(dp2876
sg44
I00
sbsg7
(g11
S'\x05\x00\x00\x00\x00\x00\x00\x00'
p2877
tp2878
Rp2879
(i__main__
TreeNode
p2880
(dp2881
g5
(dp2882
g7
(g11
S'\x01\x00\x00\x00\x00\x00\x00\x00'
p2883
tp2884
Rp2885
(i__main__
TreeNode
p2886
(dp2887
g5
(dp2888
sg44
I00
sbsg7
(g11
S'\x02\x00\x00\x00\x00\x00\x00\x00'
p2889
tp2890
Rp2891
(i__main__
TreeNode
p2892
(dp2893
g5
(dp2894
sg44
I00
sbsg7
(g11
S'\x03\x00\x00\x00\x00\x00\x00\x00'
p2895
tp2896
Rp2897
(i__main__
TreeNode
p2898
(dp2899
g5
(dp2900
sg44
I01
sbsg7
(g11
S'\x04\x00\x00\x00\x00\x00\x00\x00'
p2901
tp2902
Rp2903
(i__main__
TreeNode
p2904
(dp2905
g5
(dp2906
sg44
I00
sbsg7
(g11
S'\x05\x00\x00\x00\x00\x00\x00\x00'
p2907
tp2908
Rp2909
(i__main__
TreeNode
p2910
(dp2911
g5
(dp2912
sg44
I01
sbsg7
(g11
S'\x07\x00\x00\x00\x00\x00\x00\x00'
p2913
tp2914
Rp2915
(i__main__
TreeNode
p2916
(dp2917
g5
(dp2918
sg44
I01
sbsI-1
(i__main__
TreeNode
p2919
(dp2920
g5
(dp2921
sg44
I00
sbssg44
I273
sbsI-1
(i__main__
TreeNode
p2922
(dp2923
g5
(dp2924
sg44
I00
sbssg44
I84
sbsg7
(g11
S'\x04\x00\x00\x00\x00\x00\x00\x00'
p2925
tp2926
Rp2927
(i__main__
TreeNode
p2928
(dp2929
g5
(dp2930
g7
(g11
S'\x01\x00\x00\x00\x00\x00\x00\x00'
p2931
tp2932
Rp2933
(i__main__
TreeNode
p2934
(dp2935
g5
(dp2936
g7
(g11
S'\x01\x00\x00\x00\x00\x00\x00\x00'
p2937
tp2938
Rp2939
(i__main__
TreeNode
p2940
(dp2941
g5
(dp2942
sg44
I00
sbsg7
(g11
S'\x02\x00\x00\x00\x00\x00\x00\x00'
p2943
tp2944
Rp2945
(i__main__
TreeNode
p2946
(dp2947
g5
(dp2948
sg44
I00
sbsg7
(g11
S'\x03\x00\x00\x00\x00\x00\x00\x00'
p2949
tp2950
Rp2951
(i__main__
TreeNode
p2952
(dp2953
g5
(dp2954
sg44
I00
sbsg7
(g11
S'\x04\x00\x00\x00\x00\x00\x00\x00'
p2955
tp2956
Rp2957
(i__main__
TreeNode
p2958
(dp2959
g5
(dp2960
sg44
I00
sbsg7
(g11
S'\x05\x00\x00\x00\x00\x00\x00\x00'
p2961
tp2962
Rp2963
(i__main__
TreeNode
p2964
(dp2965
g5
(dp2966
sg44
I00
sbsg7
(g11
S'\x06\x00\x00\x00\x00\x00\x00\x00'
p2967
tp2968
Rp2969
(i__main__
TreeNode
p2970
(dp2971
g5
(dp2972
sg44
I01
sbsg7
(g11
S'\x07\x00\x00\x00\x00\x00\x00\x00'
p2973
tp2974
Rp2975
(i__main__
TreeNode
p2976
(dp2977
g5
(dp2978
sg44
I00
sbsI-1
(i__main__
TreeNode
p2979
(dp2980
g5
(dp2981
sg44
I00
sbssg44
I87
sbsg7
(g11
S'\x02\x00\x00\x00\x00\x00\x00\x00'
p2982
tp2983
Rp2984
(i__main__
TreeNode
p2985
(dp2986
g5
(dp2987
g7
(g11
S'\x01\x00\x00\x00\x00\x00\x00\x00'
p2988
tp2989
Rp2990
(i__main__
TreeNode
p2991
(dp2992
g5
(dp2993
g7
(g11
S'\x01\x00\x00\x00\x00\x00\x00\x00'
p2994
tp2995
Rp2996
(i__main__
TreeNode
p2997
(dp2998
g5
(dp2999
sg44
I00
sbsg7
(g11
S'\x02\x00\x00\x00\x00\x00\x00\x00'
p3000
tp3001
Rp3002
(i__main__
TreeNode
p3003
(dp3004
g5
(dp3005
sg44
I01
sbsg7
(g11
S'\x03\x00\x00\x00\x00\x00\x00\x00'
p3006
tp3007
Rp3008
(i__main__
TreeNode
p3009
(dp3010
g5
(dp3011
sg44
I01
sbsg7
(g11
S'\x04\x00\x00\x00\x00\x00\x00\x00'
p3012
tp3013
Rp3014
(i__main__
TreeNode
p3015
(dp3016
g5
(dp3017
sg44
I00
sbsg7
(g11
S'\x05\x00\x00\x00\x00\x00\x00\x00'
p3018
tp3019
Rp3020
(i__main__
TreeNode
p3021
(dp3022
g5
(dp3023
sg44
I00
sbsI-1
(i__main__
TreeNode
p3024
(dp3025
g5
(dp3026
sg44
I00
sbssg44
I81
sbsg7
(g11
S'\x02\x00\x00\x00\x00\x00\x00\x00'
p3027
tp3028
Rp3029
(i__main__
TreeNode
p3030
(dp3031
g5
(dp3032
sg44
I00
sbsg7
(g11
S'\x03\x00\x00\x00\x00\x00\x00\x00'
p3033
tp3034
Rp3035
(i__main__
TreeNode
p3036
(dp3037
g5
(dp3038
g7
(g11
S'\x01\x00\x00\x00\x00\x00\x00\x00'
p3039
tp3040
Rp3041
(i__main__
TreeNode
p3042
(dp3043
g5
(dp3044
sg44
I01
sbsg7
(g11
S'\x02\x00\x00\x00\x00\x00\x00\x00'
p3045
tp3046
Rp3047
(i__main__
TreeNode
p3048
(dp3049
g5
(dp3050
sg44
I00
sbsI-1
(i__main__
TreeNode
p3051
(dp3052
g5
(dp3053
sg44
I00
sbssg44
I85
sbsg7
(g11
S'\x04\x00\x00\x00\x00\x00\x00\x00'
p3054
tp3055
Rp3056
(i__main__
TreeNode
p3057
(dp3058
g5
(dp3059
g7
(g11
S'\x01\x00\x00\x00\x00\x00\x00\x00'
p3060
tp3061
Rp3062
(i__main__
TreeNode
p3063
(dp3064
g5
(dp3065
sg44
I00
sbsg7
(g11
S'\x02\x00\x00\x00\x00\x00\x00\x00'
p3066
tp3067
Rp3068
(i__main__
TreeNode
p3069
(dp3070
g5
(dp3071
g7
(g11
S'\x01\x00\x00\x00\x00\x00\x00\x00'
p3072
tp3073
Rp3074
(i__main__
TreeNode
p3075
(dp3076
g5
(dp3077
g7
(g11
S'\x02\x00\x00\x00\x00\x00\x00\x00'
p3078
tp3079
Rp3080
(i__main__
TreeNode
p3081
(dp3082
g5
(dp3083
sg44
I00
sbsg7
(g11
S'\x04\x00\x00\x00\x00\x00\x00\x00'
p3084
tp3085
Rp3086
(i__main__
TreeNode
p3087
(dp3088
g5
(dp3089
sg44
I01
sbsI-1
(i__main__
TreeNode
p3090
(dp3091
g5
(dp3092
sg44
I01
sbssg44
I128
sbsg7
(g11
S'\x02\x00\x00\x00\x00\x00\x00\x00'
p3093
tp3094
Rp3095
(i__main__
TreeNode
p3096
(dp3097
g5
(dp3098
sg44
I00
sbsg7
(g11
S'\x05\x00\x00\x00\x00\x00\x00\x00'
p3099
tp3100
Rp3101
(i__main__
TreeNode
p3102
(dp3103
g5
(dp3104
sg44
I00
sbsI-1
(i__main__
TreeNode
p3105
(dp3106
g5
(dp3107
sg44
I01
sbssg44
I84
sbsg7
(g11
S'\x03\x00\x00\x00\x00\x00\x00\x00'
p3108
tp3109
Rp3110
(i__main__
TreeNode
p3111
(dp3112
g5
(dp3113
sg44
I00
sbsg7
(g11
S'\x04\x00\x00\x00\x00\x00\x00\x00'
p3114
tp3115
Rp3116
(i__main__
TreeNode
p3117
(dp3118
g5
(dp3119
sg44
I00
sbsg7
(g11
S'\x05\x00\x00\x00\x00\x00\x00\x00'
p3120
tp3121
Rp3122
(i__main__
TreeNode
p3123
(dp3124
g5
(dp3125
sg44
I00
sbsg7
(g11
S'\x06\x00\x00\x00\x00\x00\x00\x00'
p3126
tp3127
Rp3128
(i__main__
TreeNode
p3129
(dp3130
g5
(dp3131
g7
(g11
S'\x02\x00\x00\x00\x00\x00\x00\x00'
p3132
tp3133
Rp3134
(i__main__
TreeNode
p3135
(dp3136
g5
(dp3137
sg44
I01
sbsg7
(g11
S'\x05\x00\x00\x00\x00\x00\x00\x00'
p3138
tp3139
Rp3140
(i__main__
TreeNode
p3141
(dp3142
g5
(dp3143
sg44
I00
sbsI-1
(i__main__
TreeNode
p3144
(dp3145
g5
(dp3146
sg44
I00
sbssg44
I127
sbsg7
(g11
S'\x07\x00\x00\x00\x00\x00\x00\x00'
p3147
tp3148
Rp3149
(i__main__
TreeNode
p3150
(dp3151
g5
(dp3152
sg44
I00
sbsI-1
(i__main__
TreeNode
p3153
(dp3154
g5
(dp3155
sg44
I00
sbssg44
I87
sbsg7
(g11
S'\x05\x00\x00\x00\x00\x00\x00\x00'
p3156
tp3157
Rp3158
(i__main__
TreeNode
p3159
(dp3160
g5
(dp3161
g7
(g11
S'\x01\x00\x00\x00\x00\x00\x00\x00'
p3162
tp3163
Rp3164
(i__main__
TreeNode
p3165
(dp3166
g5
(dp3167
sg44
I00
sbsg7
(g11
S'\x03\x00\x00\x00\x00\x00\x00\x00'
p3168
tp3169
Rp3170
(i__main__
TreeNode
p3171
(dp3172
g5
(dp3173
sg44
I00
sbsg7
(g11
S'\x04\x00\x00\x00\x00\x00\x00\x00'
p3174
tp3175
Rp3176
(i__main__
TreeNode
p3177
(dp3178
g5
(dp3179
g7
(g11
S'\x03\x00\x00\x00\x00\x00\x00\x00'
p3180
tp3181
Rp3182
(i__main__
TreeNode
p3183
(dp3184
g5
(dp3185
sg44
I00
sbsg7
(g11
S'\x05\x00\x00\x00\x00\x00\x00\x00'
p3186
tp3187
Rp3188
(i__main__
TreeNode
p3189
(dp3190
g5
(dp3191
sg44
I01
sbsI-1
(i__main__
TreeNode
p3192
(dp3193
g5
(dp3194
sg44
I00
sbssg44
I88
sbsg7
(g11
S'\x05\x00\x00\x00\x00\x00\x00\x00'
p3195
tp3196
Rp3197
(i__main__
TreeNode
p3198
(dp3199
g5
(dp3200
sg44
I00
sbsg7
(g11
S'\x06\x00\x00\x00\x00\x00\x00\x00'
p3201
tp3202
Rp3203
(i__main__
TreeNode
p3204
(dp3205
g5
(dp3206
sg44
I00
sbsI-1
(i__main__
TreeNode
p3207
(dp3208
g5
(dp3209
sg44
I00
sbssg44
I87
sbsg7
(g11
S'\x06\x00\x00\x00\x00\x00\x00\x00'
p3210
tp3211
Rp3212
(i__main__
TreeNode
p3213
(dp3214
g5
(dp3215
sg44
I00
sbsg7
(g11
S'\x07\x00\x00\x00\x00\x00\x00\x00'
p3216
tp3217
Rp3218
(i__main__
TreeNode
p3219
(dp3220
g5
(dp3221
sg44
I00
sbsI-1
(i__main__
TreeNode
p3222
(dp3223
g5
(dp3224
sg44
I00
sbssg44
I273
sbsg7
(g11
S'\x03\x00\x00\x00\x00\x00\x00\x00'
p3225
tp3226
Rp3227
(i__main__
TreeNode
p3228
(dp3229
g5
(dp3230
sg44
I00
sbsg7
(g11
S'\x04\x00\x00\x00\x00\x00\x00\x00'
p3231
tp3232
Rp3233
(i__main__
TreeNode
p3234
(dp3235
g5
(dp3236
sg44
I00
sbsg7
(g11
S'\x05\x00\x00\x00\x00\x00\x00\x00'
p3237
tp3238
Rp3239
(i__main__
TreeNode
p3240
(dp3241
g5
(dp3242
g7
(g11
S'\x01\x00\x00\x00\x00\x00\x00\x00'
p3243
tp3244
Rp3245
(i__main__
TreeNode
p3246
(dp3247
g5
(dp3248
sg44
I01
sbsg7
(g11
S'\x02\x00\x00\x00\x00\x00\x00\x00'
p3249
tp3250
Rp3251
(i__main__
TreeNode
p3252
(dp3253
g5
(dp3254
sg44
I00
sbsg7
(g11
S'\x03\x00\x00\x00\x00\x00\x00\x00'
p3255
tp3256
Rp3257
(i__main__
TreeNode
p3258
(dp3259
g5
(dp3260
sg44
I00
sbsg7
(g11
S'\x04\x00\x00\x00\x00\x00\x00\x00'
p3261
tp3262
Rp3263
(i__main__
TreeNode
p3264
(dp3265
g5
(dp3266
sg44
I00
sbsg7
(g11
S'\x05\x00\x00\x00\x00\x00\x00\x00'
p3267
tp3268
Rp3269
(i__main__
TreeNode
p3270
(dp3271
g5
(dp3272
sg44
I00
sbsI-1
(i__main__
TreeNode
p3273
(dp3274
g5
(dp3275
sg44
I00
sbssg44
I81
sbsI-1
(i__main__
TreeNode
p3276
(dp3277
g5
(dp3278
sg44
I00
sbssg44
I129
sbsg7
(g11
S'\x05\x00\x00\x00\x00\x00\x00\x00'
p3279
tp3280
Rp3281
(i__main__
TreeNode
p3282
(dp3283
g5
(dp3284
g7
(g11
S'\x01\x00\x00\x00\x00\x00\x00\x00'
p3285
tp3286
Rp3287
(i__main__
TreeNode
p3288
(dp3289
g5
(dp3290
sg44
I00
sbsg7
(g11
S'\x02\x00\x00\x00\x00\x00\x00\x00'
p3291
tp3292
Rp3293
(i__main__
TreeNode
p3294
(dp3295
g5
(dp3296
g7
(g11
S'\x01\x00\x00\x00\x00\x00\x00\x00'
p3297
tp3298
Rp3299
(i__main__
TreeNode
p3300
(dp3301
g5
(dp3302
sg44
I00
sbsg7
(g11
S'\x02\x00\x00\x00\x00\x00\x00\x00'
p3303
tp3304
Rp3305
(i__main__
TreeNode
p3306
(dp3307
g5
(dp3308
g7
(g11
S'\x01\x00\x00\x00\x00\x00\x00\x00'
p3309
tp3310
Rp3311
(i__main__
TreeNode
p3312
(dp3313
g5
(dp3314
sg44
I01
sbsg7
(g11
S'\x02\x00\x00\x00\x00\x00\x00\x00'
p3315
tp3316
Rp3317
(i__main__
TreeNode
p3318
(dp3319
g5
(dp3320
sg44
I00
sbsI-1
(i__main__
TreeNode
p3321
(dp3322
g5
(dp3323
sg44
I01
sbssg44
I84
sbsg7
(g11
S'\x03\x00\x00\x00\x00\x00\x00\x00'
p3324
tp3325
Rp3326
(i__main__
TreeNode
p3327
(dp3328
g5
(dp3329
g7
(g11
S'\x01\x00\x00\x00\x00\x00\x00\x00'
p3330
tp3331
Rp3332
(i__main__
TreeNode
p3333
(dp3334
g5
(dp3335
sg44
I00
sbsg7
(g11
S'\x02\x00\x00\x00\x00\x00\x00\x00'
p3336
tp3337
Rp3338
(i__main__
TreeNode
p3339
(dp3340
g5
(dp3341
sg44
I01
sbsg7
(g11
S'\x03\x00\x00\x00\x00\x00\x00\x00'
p3342
tp3343
Rp3344
(i__main__
TreeNode
p3345
(dp3346
g5
(dp3347
sg44
I01
sbsg7
(g11
S'\x04\x00\x00\x00\x00\x00\x00\x00'
p3348
tp3349
Rp3350
(i__main__
TreeNode
p3351
(dp3352
g5
(dp3353
sg44
I00
sbsg7
(g11
S'\x05\x00\x00\x00\x00\x00\x00\x00'
p3354
tp3355
Rp3356
(i__main__
TreeNode
p3357
(dp3358
g5
(dp3359
sg44
I00
sbsI-1
(i__main__
TreeNode
p3360
(dp3361
g5
(dp3362
sg44
I00
sbssg44
I84
sbsg7
(g11
S'\x04\x00\x00\x00\x00\x00\x00\x00'
p3363
tp3364
Rp3365
(i__main__
TreeNode
p3366
(dp3367
g5
(dp3368
g7
(g11
S'\x01\x00\x00\x00\x00\x00\x00\x00'
p3369
tp3370
Rp3371
(i__main__
TreeNode
p3372
(dp3373
g5
(dp3374
sg44
I00
sbsg7
(g11
S'\x02\x00\x00\x00\x00\x00\x00\x00'
p3375
tp3376
Rp3377
(i__main__
TreeNode
p3378
(dp3379
g5
(dp3380
sg44
I01
sbsg7
(g11
S'\x03\x00\x00\x00\x00\x00\x00\x00'
p3381
tp3382
Rp3383
(i__main__
TreeNode
p3384
(dp3385
g5
(dp3386
sg44
I00
sbsg7
(g11
S'\x04\x00\x00\x00\x00\x00\x00\x00'
p3387
tp3388
Rp3389
(i__main__
TreeNode
p3390
(dp3391
g5
(dp3392
sg44
I00
sbsg7
(g11
S'\x05\x00\x00\x00\x00\x00\x00\x00'
p3393
tp3394
Rp3395
(i__main__
TreeNode
p3396
(dp3397
g5
(dp3398
sg44
I00
sbsI-1
(i__main__
TreeNode
p3399
(dp3400
g5
(dp3401
sg44
I00
sbssg44
I88
sbsg7
(g11
S'\x05\x00\x00\x00\x00\x00\x00\x00'
p3402
tp3403
Rp3404
(i__main__
TreeNode
p3405
(dp3406
g5
(dp3407
g7
(g11
S'\x02\x00\x00\x00\x00\x00\x00\x00'
p3408
tp3409
Rp3410
(i__main__
TreeNode
p3411
(dp3412
g5
(dp3413
sg44
I00
sbsg7
(g11
S'\x05\x00\x00\x00\x00\x00\x00\x00'
p3414
tp3415
Rp3416
(i__main__
TreeNode
p3417
(dp3418
g5
(dp3419
sg44
I00
sbsI-1
(i__main__
TreeNode
p3420
(dp3421
g5
(dp3422
sg44
I00
sbssg44
I85
sbsI-1
(i__main__
TreeNode
p3423
(dp3424
g5
(dp3425
sg44
I00
sbssg44
I127
sbsg7
(g11
S'\x03\x00\x00\x00\x00\x00\x00\x00'
p3426
tp3427
Rp3428
(i__main__
TreeNode
p3429
(dp3430
g5
(dp3431
g7
(g11
S'\x02\x00\x00\x00\x00\x00\x00\x00'
p3432
tp3433
Rp3434
(i__main__
TreeNode
p3435
(dp3436
g5
(dp3437
sg44
I00
sbsg7
(g11
S'\x03\x00\x00\x00\x00\x00\x00\x00'
p3438
tp3439
Rp3440
(i__main__
TreeNode
p3441
(dp3442
g5
(dp3443
sg44
I00
sbsg7
(g11
S'\x04\x00\x00\x00\x00\x00\x00\x00'
p3444
tp3445
Rp3446
(i__main__
TreeNode
p3447
(dp3448
g5
(dp3449
sg44
I00
sbsg7
(g11
S'\x05\x00\x00\x00\x00\x00\x00\x00'
p3450
tp3451
Rp3452
(i__main__
TreeNode
p3453
(dp3454
g5
(dp3455
sg44
I00
sbsI-1
(i__main__
TreeNode
p3456
(dp3457
g5
(dp3458
sg44
I00
sbssg44
I128
sbsg7
(g11
S'\x04\x00\x00\x00\x00\x00\x00\x00'
p3459
tp3460
Rp3461
(i__main__
TreeNode
p3462
(dp3463
g5
(dp3464
sg44
I00
sbsg7
(g11
S'\x05\x00\x00\x00\x00\x00\x00\x00'
p3465
tp3466
Rp3467
(i__main__
TreeNode
p3468
(dp3469
g5
(dp3470
g7
(g11
S'\x02\x00\x00\x00\x00\x00\x00\x00'
p3471
tp3472
Rp3473
(i__main__
TreeNode
p3474
(dp3475
g5
(dp3476
sg44
I00
sbsg7
(g11
S'\x03\x00\x00\x00\x00\x00\x00\x00'
p3477
tp3478
Rp3479
(i__main__
TreeNode
p3480
(dp3481
g5
(dp3482
sg44
I00
sbsg7
(g11
S'\x04\x00\x00\x00\x00\x00\x00\x00'
p3483
tp3484
Rp3485
(i__main__
TreeNode
p3486
(dp3487
g5
(dp3488
sg44
I00
sbsg7
(g11
S'\x05\x00\x00\x00\x00\x00\x00\x00'
p3489
tp3490
Rp3491
(i__main__
TreeNode
p3492
(dp3493
g5
(dp3494
sg44
I00
sbsI-1
(i__main__
TreeNode
p3495
(dp3496
g5
(dp3497
sg44
I00
sbssg44
I127
sbsg7
(g11
S'\x06\x00\x00\x00\x00\x00\x00\x00'
p3498
tp3499
Rp3500
(i__main__
TreeNode
p3501
(dp3502
g5
(dp3503
sg44
I00
sbsg7
(g11
S'\x07\x00\x00\x00\x00\x00\x00\x00'
p3504
tp3505
Rp3506
(i__main__
TreeNode
p3507
(dp3508
g5
(dp3509
sg44
I00
sbsI-1
(i__main__
TreeNode
p3510
(dp3511
g5
(dp3512
sg44
I00
sbssg44
I87
sbsI-1
(i__main__
TreeNode
p3513
(dp3514
g5
(dp3515
sg44
I00
sbssg44
I82
sbsg7
(g11
S'\x02\x00\x00\x00\x00\x00\x00\x00'
p3516
tp3517
Rp3518
(i__main__
TreeNode
p3519
(dp3520
g5
(dp3521
g7
(g11
S'\x01\x00\x00\x00\x00\x00\x00\x00'
p3522
tp3523
Rp3524
(i__main__
TreeNode
p3525
(dp3526
g5
(dp3527
g7
(g11
S'\x01\x00\x00\x00\x00\x00\x00\x00'
p3528
tp3529
Rp3530
(i__main__
TreeNode
p3531
(dp3532
g5
(dp3533
sg44
I00
sbsg7
(g11
S'\x02\x00\x00\x00\x00\x00\x00\x00'
p3534
tp3535
Rp3536
(i__main__
TreeNode
p3537
(dp3538
g5
(dp3539
sg44
I00
sbsg7
(g11
S'\x06\x00\x00\x00\x00\x00\x00\x00'
p3540
tp3541
Rp3542
(i__main__
TreeNode
p3543
(dp3544
g5
(dp3545
g7
(g11
S'\x02\x00\x00\x00\x00\x00\x00\x00'
p3546
tp3547
Rp3548
(i__main__
TreeNode
p3549
(dp3550
g5
(dp3551
sg44
I01
sbsg7
(g11
S'\x03\x00\x00\x00\x00\x00\x00\x00'
p3552
tp3553
Rp3554
(i__main__
TreeNode
p3555
(dp3556
g5
(dp3557
sg44
I01
sbsg7
(g11
S'\x04\x00\x00\x00\x00\x00\x00\x00'
p3558
tp3559
Rp3560
(i__main__
TreeNode
p3561
(dp3562
g5
(dp3563
sg44
I00
sbsI-1
(i__main__
TreeNode
p3564
(dp3565
g5
(dp3566
sg44
I01
sbssg44
I88
sbsI-1
(i__main__
TreeNode
p3567
(dp3568
g5
(dp3569
sg44
I00
sbssg44
I270
sbsg7
(g11
S'\x02\x00\x00\x00\x00\x00\x00\x00'
p3570
tp3571
Rp3572
(i__main__
TreeNode
p3573
(dp3574
g5
(dp3575
g7
(g11
S'\x01\x00\x00\x00\x00\x00\x00\x00'
p3576
tp3577
Rp3578
(i__main__
TreeNode
p3579
(dp3580
g5
(dp3581
sg44
I00
sbsg7
(g11
S'\x02\x00\x00\x00\x00\x00\x00\x00'
p3582
tp3583
Rp3584
(i__main__
TreeNode
p3585
(dp3586
g5
(dp3587
sg44
I00
sbsg7
(g11
S'\x03\x00\x00\x00\x00\x00\x00\x00'
p3588
tp3589
Rp3590
(i__main__
TreeNode
p3591
(dp3592
g5
(dp3593
g7
(g11
S'\x01\x00\x00\x00\x00\x00\x00\x00'
p3594
tp3595
Rp3596
(i__main__
TreeNode
p3597
(dp3598
g5
(dp3599
sg44
I00
sbsg7
(g11
S'\x03\x00\x00\x00\x00\x00\x00\x00'
p3600
tp3601
Rp3602
(i__main__
TreeNode
p3603
(dp3604
g5
(dp3605
sg44
I00
sbsg7
(g11
S'\x04\x00\x00\x00\x00\x00\x00\x00'
p3606
tp3607
Rp3608
(i__main__
TreeNode
p3609
(dp3610
g5
(dp3611
g7
(g11
S'\x04\x00\x00\x00\x00\x00\x00\x00'
p3612
tp3613
Rp3614
(i__main__
TreeNode
p3615
(dp3616
g5
(dp3617
sg44
I01
sbsg7
(g11
S'\x06\x00\x00\x00\x00\x00\x00\x00'
p3618
tp3619
Rp3620
(i__main__
TreeNode
p3621
(dp3622
g5
(dp3623
sg44
I00
sbsI-1
(i__main__
TreeNode
p3624
(dp3625
g5
(dp3626
sg44
I00
sbsg7
(g11
S'\x05\x00\x00\x00\x00\x00\x00\x00'
p3627
tp3628
Rp3629
(i__main__
TreeNode
p3630
(dp3631
g5
(dp3632
sg44
I00
sbssg44
I87
sbsg7
(g11
S'\x05\x00\x00\x00\x00\x00\x00\x00'
p3633
tp3634
Rp3635
(i__main__
TreeNode
p3636
(dp3637
g5
(dp3638
sg44
I01
sbsg7
(g11
S'\x06\x00\x00\x00\x00\x00\x00\x00'
p3639
tp3640
Rp3641
(i__main__
TreeNode
p3642
(dp3643
g5
(dp3644
sg44
I01
sbsg7
(g11
S'\x07\x00\x00\x00\x00\x00\x00\x00'
p3645
tp3646
Rp3647
(i__main__
TreeNode
p3648
(dp3649
g5
(dp3650
sg44
I00
sbsI-1
(i__main__
TreeNode
p3651
(dp3652
g5
(dp3653
sg44
I00
sbssg44
I273
sbsg7
(g11
S'\x04\x00\x00\x00\x00\x00\x00\x00'
p3654
tp3655
Rp3656
(i__main__
TreeNode
p3657
(dp3658
g5
(dp3659
g7
(g11
S'\x01\x00\x00\x00\x00\x00\x00\x00'
p3660
tp3661
Rp3662
(i__main__
TreeNode
p3663
(dp3664
g5
(dp3665
sg44
I00
sbsg7
(g11
S'\x02\x00\x00\x00\x00\x00\x00\x00'
p3666
tp3667
Rp3668
(i__main__
TreeNode
p3669
(dp3670
g5
(dp3671
sg44
I01
sbsI-1
(i__main__
TreeNode
p3672
(dp3673
g5
(dp3674
sg44
I00
sbssg44
I183
sbsg7
(g11
S'\x05\x00\x00\x00\x00\x00\x00\x00'
p3675
tp3676
Rp3677
(i__main__
TreeNode
p3678
(dp3679
g5
(dp3680
sg44
I00
sbsI-1
(i__main__
TreeNode
p3681
(dp3682
g5
(dp3683
sg44
I00
sbssg44
I127
sbsg7
(g11
S'\x03\x00\x00\x00\x00\x00\x00\x00'
p3684
tp3685
Rp3686
(i__main__
TreeNode
p3687
(dp3688
g5
(dp3689
g7
(g11
S'\x01\x00\x00\x00\x00\x00\x00\x00'
p3690
tp3691
Rp3692
(i__main__
TreeNode
p3693
(dp3694
g5
(dp3695
sg44
I00
sbsg7
(g11
S'\x02\x00\x00\x00\x00\x00\x00\x00'
p3696
tp3697
Rp3698
(i__main__
TreeNode
p3699
(dp3700
g5
(dp3701
sg44
I01
sbsg7
(g11
S'\x03\x00\x00\x00\x00\x00\x00\x00'
p3702
tp3703
Rp3704
(i__main__
TreeNode
p3705
(dp3706
g5
(dp3707
g7
(g11
S'\x01\x00\x00\x00\x00\x00\x00\x00'
p3708
tp3709
Rp3710
(i__main__
TreeNode
p3711
(dp3712
g5
(dp3713
sg44
I00
sbsg7
(g11
S'\x02\x00\x00\x00\x00\x00\x00\x00'
p3714
tp3715
Rp3716
(i__main__
TreeNode
p3717
(dp3718
g5
(dp3719
sg44
I00
sbsg7
(g11
S'\x03\x00\x00\x00\x00\x00\x00\x00'
p3720
tp3721
Rp3722
(i__main__
TreeNode
p3723
(dp3724
g5
(dp3725
sg44
I00
sbsg7
(g11
S'\x04\x00\x00\x00\x00\x00\x00\x00'
p3726
tp3727
Rp3728
(i__main__
TreeNode
p3729
(dp3730
g5
(dp3731
sg44
I01
sbsg7
(g11
S'\x05\x00\x00\x00\x00\x00\x00\x00'
p3732
tp3733
Rp3734
(i__main__
TreeNode
p3735
(dp3736
g5
(dp3737
sg44
I00
sbsI-1
(i__main__
TreeNode
p3738
(dp3739
g5
(dp3740
sg44
I00
sbssg44
I88
sbsg7
(g11
S'\x04\x00\x00\x00\x00\x00\x00\x00'
p3741
tp3742
Rp3743
(i__main__
TreeNode
p3744
(dp3745
g5
(dp3746
g7
(g11
S'\x01\x00\x00\x00\x00\x00\x00\x00'
p3747
tp3748
Rp3749
(i__main__
TreeNode
p3750
(dp3751
g5
(dp3752
sg44
I00
sbsg7
(g11
S'\x02\x00\x00\x00\x00\x00\x00\x00'
p3753
tp3754
Rp3755
(i__main__
TreeNode
p3756
(dp3757
g5
(dp3758
sg44
I00
sbsg7
(g11
S'\x04\x00\x00\x00\x00\x00\x00\x00'
p3759
tp3760
Rp3761
(i__main__
TreeNode
p3762
(dp3763
g5
(dp3764
sg44
I01
sbsI-1
(i__main__
TreeNode
p3765
(dp3766
g5
(dp3767
sg44
I00
sbssg44
I84
sbsg7
(g11
S'\x05\x00\x00\x00\x00\x00\x00\x00'
p3768
tp3769
Rp3770
(i__main__
TreeNode
p3771
(dp3772
g5
(dp3773
sg44
I00
sbsI-1
(i__main__
TreeNode
p3774
(dp3775
g5
(dp3776
sg44
I00
sbssg44
I128
sbsg7
(g11
S'\x04\x00\x00\x00\x00\x00\x00\x00'
p3777
tp3778
Rp3779
(i__main__
TreeNode
p3780
(dp3781
g5
(dp3782
sg44
I00
sbsg7
(g11
S'\x05\x00\x00\x00\x00\x00\x00\x00'
p3783
tp3784
Rp3785
(i__main__
TreeNode
p3786
(dp3787
g5
(dp3788
g7
(g11
S'\x01\x00\x00\x00\x00\x00\x00\x00'
p3789
tp3790
Rp3791
(i__main__
TreeNode
p3792
(dp3793
g5
(dp3794
sg44
I00
sbsg7
(g11
S'\x02\x00\x00\x00\x00\x00\x00\x00'
p3795
tp3796
Rp3797
(i__main__
TreeNode
p3798
(dp3799
g5
(dp3800
sg44
I00
sbsg7
(g11
S'\x03\x00\x00\x00\x00\x00\x00\x00'
p3801
tp3802
Rp3803
(i__main__
TreeNode
p3804
(dp3805
g5
(dp3806
sg44
I00
sbsg7
(g11
S'\x04\x00\x00\x00\x00\x00\x00\x00'
p3807
tp3808
Rp3809
(i__main__
TreeNode
p3810
(dp3811
g5
(dp3812
g7
(g11
S'\x01\x00\x00\x00\x00\x00\x00\x00'
p3813
tp3814
Rp3815
(i__main__
TreeNode
p3816
(dp3817
g5
(dp3818
sg44
I00
sbsg7
(g11
S'\x02\x00\x00\x00\x00\x00\x00\x00'
p3819
tp3820
Rp3821
(i__main__
TreeNode
p3822
(dp3823
g5
(dp3824
sg44
I01
sbsg7
(g11
S'\x03\x00\x00\x00\x00\x00\x00\x00'
p3825
tp3826
Rp3827
(i__main__
TreeNode
p3828
(dp3829
g5
(dp3830
sg44
I00
sbsg7
(g11
S'\x04\x00\x00\x00\x00\x00\x00\x00'
p3831
tp3832
Rp3833
(i__main__
TreeNode
p3834
(dp3835
g5
(dp3836
sg44
I00
sbsg7
(g11
S'\x05\x00\x00\x00\x00\x00\x00\x00'
p3837
tp3838
Rp3839
(i__main__
TreeNode
p3840
(dp3841
g5
(dp3842
sg44
I01
sbsI-1
(i__main__
TreeNode
p3843
(dp3844
g5
(dp3845
sg44
I00
sbssg44
I85
sbsg7
(g11
S'\x05\x00\x00\x00\x00\x00\x00\x00'
p3846
tp3847
Rp3848
(i__main__
TreeNode
p3849
(dp3850
g5
(dp3851
g7
(g11
S'\x01\x00\x00\x00\x00\x00\x00\x00'
p3852
tp3853
Rp3854
(i__main__
TreeNode
p3855
(dp3856
g5
(dp3857
sg44
I00
sbsg7
(g11
S'\x02\x00\x00\x00\x00\x00\x00\x00'
p3858
tp3859
Rp3860
(i__main__
TreeNode
p3861
(dp3862
g5
(dp3863
sg44
I00
sbsg7
(g11
S'\x03\x00\x00\x00\x00\x00\x00\x00'
p3864
tp3865
Rp3866
(i__main__
TreeNode
p3867
(dp3868
g5
(dp3869
sg44
I00
sbsg7
(g11
S'\x04\x00\x00\x00\x00\x00\x00\x00'
p3870
tp3871
Rp3872
(i__main__
TreeNode
p3873
(dp3874
g5
(dp3875
sg44
I00
sbsg7
(g11
S'\x05\x00\x00\x00\x00\x00\x00\x00'
p3876
tp3877
Rp3878
(i__main__
TreeNode
p3879
(dp3880
g5
(dp3881
sg44
I00
sbsI-1
(i__main__
TreeNode
p3882
(dp3883
g5
(dp3884
sg44
I00
sbssg44
I88
sbsg7
(g11
S'\x06\x00\x00\x00\x00\x00\x00\x00'
p3885
tp3886
Rp3887
(i__main__
TreeNode
p3888
(dp3889
g5
(dp3890
g7
(g11
S'\x01\x00\x00\x00\x00\x00\x00\x00'
p3891
tp3892
Rp3893
(i__main__
TreeNode
p3894
(dp3895
g5
(dp3896
sg44
I00
sbsg7
(g11
S'\x03\x00\x00\x00\x00\x00\x00\x00'
p3897
tp3898
Rp3899
(i__main__
TreeNode
p3900
(dp3901
g5
(dp3902
sg44
I01
sbsg7
(g11
S'\x04\x00\x00\x00\x00\x00\x00\x00'
p3903
tp3904
Rp3905
(i__main__
TreeNode
p3906
(dp3907
g5
(dp3908
sg44
I00
sbsI-1
(i__main__
TreeNode
p3909
(dp3910
g5
(dp3911
sg44
I00
sbssg44
I84
sbsg7
(g11
S'\x07\x00\x00\x00\x00\x00\x00\x00'
p3912
tp3913
Rp3914
(i__main__
TreeNode
p3915
(dp3916
g5
(dp3917
sg44
I00
sbsI-1
(i__main__
TreeNode
p3918
(dp3919
g5
(dp3920
sg44
I00
sbssg44
I87
sbsI-1
(i__main__
TreeNode
p3921
(dp3922
g5
(dp3923
sg44
I00
sbssg44
I81
sbsg7
(g11
S'\x03\x00\x00\x00\x00\x00\x00\x00'
p3924
tp3925
Rp3926
(i__main__
TreeNode
p3927
(dp3928
g5
(dp3929
g7
(g11
S'\x01\x00\x00\x00\x00\x00\x00\x00'
p3930
tp3931
Rp3932
(i__main__
TreeNode
p3933
(dp3934
g5
(dp3935
sg44
I00
sbsg7
(g11
S'\x02\x00\x00\x00\x00\x00\x00\x00'
p3936
tp3937
Rp3938
(i__main__
TreeNode
p3939
(dp3940
g5
(dp3941
g7
(g11
S'\x02\x00\x00\x00\x00\x00\x00\x00'
p3942
tp3943
Rp3944
(i__main__
TreeNode
p3945
(dp3946
g5
(dp3947
sg44
I00
sbsg7
(g11
S'\x03\x00\x00\x00\x00\x00\x00\x00'
p3948
tp3949
Rp3950
(i__main__
TreeNode
p3951
(dp3952
g5
(dp3953
sg44
I00
sbsg7
(g11
S'\x04\x00\x00\x00\x00\x00\x00\x00'
p3954
tp3955
Rp3956
(i__main__
TreeNode
p3957
(dp3958
g5
(dp3959
sg44
I00
sbsg7
(g11
S'\x05\x00\x00\x00\x00\x00\x00\x00'
p3960
tp3961
Rp3962
(i__main__
TreeNode
p3963
(dp3964
g5
(dp3965
g7
(g11
S'\x01\x00\x00\x00\x00\x00\x00\x00'
p3966
tp3967
Rp3968
(i__main__
TreeNode
p3969
(dp3970
g5
(dp3971
sg44
I00
sbsg7
(g11
S'\x02\x00\x00\x00\x00\x00\x00\x00'
p3972
tp3973
Rp3974
(i__main__
TreeNode
p3975
(dp3976
g5
(dp3977
sg44
I00
sbsg7
(g11
S'\x03\x00\x00\x00\x00\x00\x00\x00'
p3978
tp3979
Rp3980
(i__main__
TreeNode
p3981
(dp3982
g5
(dp3983
sg44
I00
sbsg7
(g11
S'\x04\x00\x00\x00\x00\x00\x00\x00'
p3984
tp3985
Rp3986
(i__main__
TreeNode
p3987
(dp3988
g5
(dp3989
sg44
I01
sbsg7
(g11
S'\x05\x00\x00\x00\x00\x00\x00\x00'
p3990
tp3991
Rp3992
(i__main__
TreeNode
p3993
(dp3994
g5
(dp3995
sg44
I00
sbsI-1
(i__main__
TreeNode
p3996
(dp3997
g5
(dp3998
sg44
I00
sbssg44
I88
sbsI-1
(i__main__
TreeNode
p3999
(dp4000
g5
(dp4001
sg44
I00
sbssg44
I82
sbsg7
(g11
S'\x03\x00\x00\x00\x00\x00\x00\x00'
p4002
tp4003
Rp4004
(i__main__
TreeNode
p4005
(dp4006
g5
(dp4007
g7
(g11
S'\x01\x00\x00\x00\x00\x00\x00\x00'
p4008
tp4009
Rp4010
(i__main__
TreeNode
p4011
(dp4012
g5
(dp4013
sg44
I00
sbsg7
(g11
S'\x02\x00\x00\x00\x00\x00\x00\x00'
p4014
tp4015
Rp4016
(i__main__
TreeNode
p4017
(dp4018
g5
(dp4019
sg44
I00
sbsg7
(g11
S'\x03\x00\x00\x00\x00\x00\x00\x00'
p4020
tp4021
Rp4022
(i__main__
TreeNode
p4023
(dp4024
g5
(dp4025
sg44
I00
sbsg7
(g11
S'\x04\x00\x00\x00\x00\x00\x00\x00'
p4026
tp4027
Rp4028
(i__main__
TreeNode
p4029
(dp4030
g5
(dp4031
sg44
I00
sbsg7
(g11
S'\x05\x00\x00\x00\x00\x00\x00\x00'
p4032
tp4033
Rp4034
(i__main__
TreeNode
p4035
(dp4036
g5
(dp4037
sg44
I00
sbsI-1
(i__main__
TreeNode
p4038
(dp4039
g5
(dp4040
sg44
I00
sbssg44
I81
sbsg7
(g11
S'\x04\x00\x00\x00\x00\x00\x00\x00'
p4041
tp4042
Rp4043
(i__main__
TreeNode
p4044
(dp4045
g5
(dp4046
g7
(g11
S'\x01\x00\x00\x00\x00\x00\x00\x00'
p4047
tp4048
Rp4049
(i__main__
TreeNode
p4050
(dp4051
g5
(dp4052
sg44
I01
sbsg7
(g11
S'\x02\x00\x00\x00\x00\x00\x00\x00'
p4053
tp4054
Rp4055
(i__main__
TreeNode
p4056
(dp4057
g5
(dp4058
sg44
I00
sbsg7
(g11
S'\x03\x00\x00\x00\x00\x00\x00\x00'
p4059
tp4060
Rp4061
(i__main__
TreeNode
p4062
(dp4063
g5
(dp4064
sg44
I00
sbsg7
(g11
S'\x04\x00\x00\x00\x00\x00\x00\x00'
p4065
tp4066
Rp4067
(i__main__
TreeNode
p4068
(dp4069
g5
(dp4070
sg44
I00
sbsg7
(g11
S'\x05\x00\x00\x00\x00\x00\x00\x00'
p4071
tp4072
Rp4073
(i__main__
TreeNode
p4074
(dp4075
g5
(dp4076
sg44
I00
sbsI-1
(i__main__
TreeNode
p4077
(dp4078
g5
(dp4079
sg44
I00
sbssg44
I81
sbsg7
(g11
S'\x05\x00\x00\x00\x00\x00\x00\x00'
p4080
tp4081
Rp4082
(i__main__
TreeNode
p4083
(dp4084
g5
(dp4085
g7
(g11
S'\x01\x00\x00\x00\x00\x00\x00\x00'
p4086
tp4087
Rp4088
(i__main__
TreeNode
p4089
(dp4090
g5
(dp4091
sg44
I00
sbsg7
(g11
S'\x02\x00\x00\x00\x00\x00\x00\x00'
p4092
tp4093
Rp4094
(i__main__
TreeNode
p4095
(dp4096
g5
(dp4097
sg44
I00
sbsg7
(g11
S'\x03\x00\x00\x00\x00\x00\x00\x00'
p4098
tp4099
Rp4100
(i__main__
TreeNode
p4101
(dp4102
g5
(dp4103
sg44
I00
sbsg7
(g11
S'\x04\x00\x00\x00\x00\x00\x00\x00'
p4104
tp4105
Rp4106
(i__main__
TreeNode
p4107
(dp4108
g5
(dp4109
sg44
I00
sbsg7
(g11
S'\x05\x00\x00\x00\x00\x00\x00\x00'
p4110
tp4111
Rp4112
(i__main__
TreeNode
p4113
(dp4114
g5
(dp4115
sg44
I00
sbsg7
(g11
S'\x06\x00\x00\x00\x00\x00\x00\x00'
p4116
tp4117
Rp4118
(i__main__
TreeNode
p4119
(dp4120
g5
(dp4121
sg44
I00
sbsg7
(g11
S'\x07\x00\x00\x00\x00\x00\x00\x00'
p4122
tp4123
Rp4124
(i__main__
TreeNode
p4125
(dp4126
g5
(dp4127
sg44
I01
sbsI-1
(i__main__
TreeNode
p4128
(dp4129
g5
(dp4130
sg44
I00
sbssg44
I273
sbsI-1
(i__main__
TreeNode
p4131
(dp4132
g5
(dp4133
sg44
I00
sbssg44
I84
sbsg7
(g11
S'\x04\x00\x00\x00\x00\x00\x00\x00'
p4134
tp4135
Rp4136
(i__main__
TreeNode
p4137
(dp4138
g5
(dp4139
g7
(g11
S'\x01\x00\x00\x00\x00\x00\x00\x00'
p4140
tp4141
Rp4142
(i__main__
TreeNode
p4143
(dp4144
g5
(dp4145
sg44
I00
sbsg7
(g11
S'\x02\x00\x00\x00\x00\x00\x00\x00'
p4146
tp4147
Rp4148
(i__main__
TreeNode
p4149
(dp4150
g5
(dp4151
sg44
I00
sbsg7
(g11
S'\x03\x00\x00\x00\x00\x00\x00\x00'
p4152
tp4153
Rp4154
(i__main__
TreeNode
p4155
(dp4156
g5
(dp4157
g7
(g11
S'\x01\x00\x00\x00\x00\x00\x00\x00'
p4158
tp4159
Rp4160
(i__main__
TreeNode
p4161
(dp4162
g5
(dp4163
g7
(g11
S'\x01\x00\x00\x00\x00\x00\x00\x00'
p4164
tp4165
Rp4166
(i__main__
TreeNode
p4167
(dp4168
g5
(dp4169
sg44
I01
sbsg7
(g11
S'\x02\x00\x00\x00\x00\x00\x00\x00'
p4170
tp4171
Rp4172
(i__main__
TreeNode
p4173
(dp4174
g5
(dp4175
sg44
I00
sbsI-1
(i__main__
TreeNode
p4176
(dp4177
g5
(dp4178
sg44
I01
sbssg44
I84
sbsg7
(g11
S'\x02\x00\x00\x00\x00\x00\x00\x00'
p4179
tp4180
Rp4181
(i__main__
TreeNode
p4182
(dp4183
g5
(dp4184
sg44
I01
sbsg7
(g11
S'\x03\x00\x00\x00\x00\x00\x00\x00'
p4185
tp4186
Rp4187
(i__main__
TreeNode
p4188
(dp4189
g5
(dp4190
sg44
I00
sbsg7
(g11
S'\x04\x00\x00\x00\x00\x00\x00\x00'
p4191
tp4192
Rp4193
(i__main__
TreeNode
p4194
(dp4195
g5
(dp4196
sg44
I00
sbsg7
(g11
S'\x05\x00\x00\x00\x00\x00\x00\x00'
p4197
tp4198
Rp4199
(i__main__
TreeNode
p4200
(dp4201
g5
(dp4202
sg44
I00
sbsI-1
(i__main__
TreeNode
p4203
(dp4204
g5
(dp4205
sg44
I00
sbssg44
I128
sbsg7
(g11
S'\x04\x00\x00\x00\x00\x00\x00\x00'
p4206
tp4207
Rp4208
(i__main__
TreeNode
p4209
(dp4210
g5
(dp4211
sg44
I00
sbsg7
(g11
S'\x05\x00\x00\x00\x00\x00\x00\x00'
p4212
tp4213
Rp4214
(i__main__
TreeNode
p4215
(dp4216
g5
(dp4217
sg44
I00
sbsg7
(g11
S'\x06\x00\x00\x00\x00\x00\x00\x00'
p4218
tp4219
Rp4220
(i__main__
TreeNode
p4221
(dp4222
g5
(dp4223
sg44
I00
sbsg7
(g11
S'\x07\x00\x00\x00\x00\x00\x00\x00'
p4224
tp4225
Rp4226
(i__main__
TreeNode
p4227
(dp4228
g5
(dp4229
sg44
I00
sbsI-1
(i__main__
TreeNode
p4230
(dp4231
g5
(dp4232
sg44
I00
sbssg44
I273
sbsg7
(g11
S'\x05\x00\x00\x00\x00\x00\x00\x00'
p4233
tp4234
Rp4235
(i__main__
TreeNode
p4236
(dp4237
g5
(dp4238
g7
(g11
S'\x01\x00\x00\x00\x00\x00\x00\x00'
p4239
tp4240
Rp4241
(i__main__
TreeNode
p4242
(dp4243
g5
(dp4244
sg44
I00
sbsg7
(g11
S'\x02\x00\x00\x00\x00\x00\x00\x00'
p4245
tp4246
Rp4247
(i__main__
TreeNode
p4248
(dp4249
g5
(dp4250
sg44
I00
sbsg7
(g11
S'\x03\x00\x00\x00\x00\x00\x00\x00'
p4251
tp4252
Rp4253
(i__main__
TreeNode
p4254
(dp4255
g5
(dp4256
g7
(g11
S'\x02\x00\x00\x00\x00\x00\x00\x00'
p4257
tp4258
Rp4259
(i__main__
TreeNode
p4260
(dp4261
g5
(dp4262
sg44
I00
sbsg7
(g11
S'\x03\x00\x00\x00\x00\x00\x00\x00'
p4263
tp4264
Rp4265
(i__main__
TreeNode
p4266
(dp4267
g5
(dp4268
sg44
I01
sbsg7
(g11
S'\x04\x00\x00\x00\x00\x00\x00\x00'
p4269
tp4270
Rp4271
(i__main__
TreeNode
p4272
(dp4273
g5
(dp4274
sg44
I01
sbsI-1
(i__main__
TreeNode
p4275
(dp4276
g5
(dp4277
sg44
I00
sbssg44
I81
sbsg7
(g11
S'\x04\x00\x00\x00\x00\x00\x00\x00'
p4278
tp4279
Rp4280
(i__main__
TreeNode
p4281
(dp4282
g5
(dp4283
sg44
I00
sbsg7
(g11
S'\x05\x00\x00\x00\x00\x00\x00\x00'
p4284
tp4285
Rp4286
(i__main__
TreeNode
p4287
(dp4288
g5
(dp4289
g7
(g11
S'\x02\x00\x00\x00\x00\x00\x00\x00'
p4290
tp4291
Rp4292
(i__main__
TreeNode
p4293
(dp4294
g5
(dp4295
sg44
I00
sbsg7
(g11
S'\x03\x00\x00\x00\x00\x00\x00\x00'
p4296
tp4297
Rp4298
(i__main__
TreeNode
p4299
(dp4300
g5
(dp4301
sg44
I00
sbsg7
(g11
S'\x05\x00\x00\x00\x00\x00\x00\x00'
p4302
tp4303
Rp4304
(i__main__
TreeNode
p4305
(dp4306
g5
(dp4307
sg44
I00
sbsI-1
(i__main__
TreeNode
p4308
(dp4309
g5
(dp4310
sg44
I00
sbssg44
I82
sbsI-1
(i__main__
TreeNode
p4311
(dp4312
g5
(dp4313
sg44
I00
sbssg44
I85
sbsg7
(g11
S'\x06\x00\x00\x00\x00\x00\x00\x00'
p4314
tp4315
Rp4316
(i__main__
TreeNode
p4317
(dp4318
g5
(dp4319
g7
(g11
S'\x01\x00\x00\x00\x00\x00\x00\x00'
p4320
tp4321
Rp4322
(i__main__
TreeNode
p4323
(dp4324
g5
(dp4325
sg44
I01
sbsg7
(g11
S'\x02\x00\x00\x00\x00\x00\x00\x00'
p4326
tp4327
Rp4328
(i__main__
TreeNode
p4329
(dp4330
g5
(dp4331
sg44
I00
sbsg7
(g11
S'\x03\x00\x00\x00\x00\x00\x00\x00'
p4332
tp4333
Rp4334
(i__main__
TreeNode
p4335
(dp4336
g5
(dp4337
sg44
I00
sbsg7
(g11
S'\x04\x00\x00\x00\x00\x00\x00\x00'
p4338
tp4339
Rp4340
(i__main__
TreeNode
p4341
(dp4342
g5
(dp4343
g7
(g11
S'\x01\x00\x00\x00\x00\x00\x00\x00'
p4344
tp4345
Rp4346
(i__main__
TreeNode
p4347
(dp4348
g5
(dp4349
sg44
I00
sbsg7
(g11
S'\x02\x00\x00\x00\x00\x00\x00\x00'
p4350
tp4351
Rp4352
(i__main__
TreeNode
p4353
(dp4354
g5
(dp4355
sg44
I00
sbsg7
(g11
S'\x04\x00\x00\x00\x00\x00\x00\x00'
p4356
tp4357
Rp4358
(i__main__
TreeNode
p4359
(dp4360
g5
(dp4361
sg44
I00
sbsg7
(g11
S'\x05\x00\x00\x00\x00\x00\x00\x00'
p4362
tp4363
Rp4364
(i__main__
TreeNode
p4365
(dp4366
g5
(dp4367
sg44
I01
sbsg7
(g11
S'\x06\x00\x00\x00\x00\x00\x00\x00'
p4368
tp4369
Rp4370
(i__main__
TreeNode
p4371
(dp4372
g5
(dp4373
sg44
I00
sbsI-1
(i__main__
TreeNode
p4374
(dp4375
g5
(dp4376
sg44
I00
sbssg44
I87
sbsg7
(g11
S'\x05\x00\x00\x00\x00\x00\x00\x00'
p4377
tp4378
Rp4379
(i__main__
TreeNode
p4380
(dp4381
g5
(dp4382
sg44
I00
sbsI-1
(i__main__
TreeNode
p4383
(dp4384
g5
(dp4385
sg44
I00
sbssg44
I81
sbsI-1
(i__main__
TreeNode
p4386
(dp4387
g5
(dp4388
sg44
I00
sbssg44
I272
sbsg7
(g11
S'\x02\x00\x00\x00\x00\x00\x00\x00'
p4389
tp4390
Rp4391
(i__main__
TreeNode
p4392
(dp4393
g5
(dp4394
g7
(g11
S'\x01\x00\x00\x00\x00\x00\x00\x00'
p4395
tp4396
Rp4397
(i__main__
TreeNode
p4398
(dp4399
g5
(dp4400
g7
(g11
S'\x01\x00\x00\x00\x00\x00\x00\x00'
p4401
tp4402
Rp4403
(i__main__
TreeNode
p4404
(dp4405
g5
(dp4406
g7
(g11
S'\x01\x00\x00\x00\x00\x00\x00\x00'
p4407
tp4408
Rp4409
(i__main__
TreeNode
p4410
(dp4411
g5
(dp4412
sg44
I00
sbsg7
(g11
S'\x02\x00\x00\x00\x00\x00\x00\x00'
p4413
tp4414
Rp4415
(i__main__
TreeNode
p4416
(dp4417
g5
(dp4418
sg44
I00
sbsg7
(g11
S'\x03\x00\x00\x00\x00\x00\x00\x00'
p4419
tp4420
Rp4421
(i__main__
TreeNode
p4422
(dp4423
g5
(dp4424
sg44
I00
sbsg7
(g11
S'\x04\x00\x00\x00\x00\x00\x00\x00'
p4425
tp4426
Rp4427
(i__main__
TreeNode
p4428
(dp4429
g5
(dp4430
g7
(g11
S'\x01\x00\x00\x00\x00\x00\x00\x00'
p4431
tp4432
Rp4433
(i__main__
TreeNode
p4434
(dp4435
g5
(dp4436
sg44
I00
sbsg7
(g11
S'\x02\x00\x00\x00\x00\x00\x00\x00'
p4437
tp4438
Rp4439
(i__main__
TreeNode
p4440
(dp4441
g5
(dp4442
sg44
I00
sbsg7
(g11
S'\x03\x00\x00\x00\x00\x00\x00\x00'
p4443
tp4444
Rp4445
(i__main__
TreeNode
p4446
(dp4447
g5
(dp4448
sg44
I00
sbsg7
(g11
S'\x05\x00\x00\x00\x00\x00\x00\x00'
p4449
tp4450
Rp4451
(i__main__
TreeNode
p4452
(dp4453
g5
(dp4454
sg44
I01
sbsI-1
(i__main__
TreeNode
p4455
(dp4456
g5
(dp4457
sg44
I00
sbssg44
I85
sbsg7
(g11
S'\x05\x00\x00\x00\x00\x00\x00\x00'
p4458
tp4459
Rp4460
(i__main__
TreeNode
p4461
(dp4462
g5
(dp4463
sg44
I00
sbsI-1
(i__main__
TreeNode
p4464
(dp4465
g5
(dp4466
sg44
I00
sbssg44
I81
sbsg7
(g11
S'\x02\x00\x00\x00\x00\x00\x00\x00'
p4467
tp4468
Rp4469
(i__main__
TreeNode
p4470
(dp4471
g5
(dp4472
sg44
I00
sbsg7
(g11
S'\x03\x00\x00\x00\x00\x00\x00\x00'
p4473
tp4474
Rp4475
(i__main__
TreeNode
p4476
(dp4477
g5
(dp4478
sg44
I00
sbsg7
(g11
S'\x04\x00\x00\x00\x00\x00\x00\x00'
p4479
tp4480
Rp4481
(i__main__
TreeNode
p4482
(dp4483
g5
(dp4484
g7
(g11
S'\x01\x00\x00\x00\x00\x00\x00\x00'
p4485
tp4486
Rp4487
(i__main__
TreeNode
p4488
(dp4489
g5
(dp4490
g7
(g11
S'\x04\x00\x00\x00\x00\x00\x00\x00'
p4491
tp4492
Rp4493
(i__main__
TreeNode
p4494
(dp4495
g5
(dp4496
sg44
I01
sbsg7
(g11
S'\x05\x00\x00\x00\x00\x00\x00\x00'
p4497
tp4498
Rp4499
(i__main__
TreeNode
p4500
(dp4501
g5
(dp4502
sg44
I00
sbsI-1
(i__main__
TreeNode
p4503
(dp4504
g5
(dp4505
sg44
I01
sbssg44
I81
sbsg7
(g11
S'\x02\x00\x00\x00\x00\x00\x00\x00'
p4506
tp4507
Rp4508
(i__main__
TreeNode
p4509
(dp4510
g5
(dp4511
sg44
I01
sbsg7
(g11
S'\x03\x00\x00\x00\x00\x00\x00\x00'
p4512
tp4513
Rp4514
(i__main__
TreeNode
p4515
(dp4516
g5
(dp4517
sg44
I00
sbsg7
(g11
S'\x04\x00\x00\x00\x00\x00\x00\x00'
p4518
tp4519
Rp4520
(i__main__
TreeNode
p4521
(dp4522
g5
(dp4523
sg44
I00
sbsg7
(g11
S'\x05\x00\x00\x00\x00\x00\x00\x00'
p4524
tp4525
Rp4526
(i__main__
TreeNode
p4527
(dp4528
g5
(dp4529
sg44
I00
sbsg7
(g11
S'\x06\x00\x00\x00\x00\x00\x00\x00'
p4530
tp4531
Rp4532
(i__main__
TreeNode
p4533
(dp4534
g5
(dp4535
sg44
I00
sbsg7
(g11
S'\x07\x00\x00\x00\x00\x00\x00\x00'
p4536
tp4537
Rp4538
(i__main__
TreeNode
p4539
(dp4540
g5
(dp4541
sg44
I00
sbsI-1
(i__main__
TreeNode
p4542
(dp4543
g5
(dp4544
sg44
I00
sbssg44
I87
sbsg7
(g11
S'\x05\x00\x00\x00\x00\x00\x00\x00'
p4545
tp4546
Rp4547
(i__main__
TreeNode
p4548
(dp4549
g5
(dp4550
g7
(g11
S'\x01\x00\x00\x00\x00\x00\x00\x00'
p4551
tp4552
Rp4553
(i__main__
TreeNode
p4554
(dp4555
g5
(dp4556
g7
(g11
S'\x01\x00\x00\x00\x00\x00\x00\x00'
p4557
tp4558
Rp4559
(i__main__
TreeNode
p4560
(dp4561
g5
(dp4562
g7
(g11
S'\x01\x00\x00\x00\x00\x00\x00\x00'
p4563
tp4564
Rp4565
(i__main__
TreeNode
p4566
(dp4567
g5
(dp4568
sg44
I00
sbsg7
(g11
S'\x02\x00\x00\x00\x00\x00\x00\x00'
p4569
tp4570
Rp4571
(i__main__
TreeNode
p4572
(dp4573
g5
(dp4574
sg44
I00
sbsg7
(g11
S'\x04\x00\x00\x00\x00\x00\x00\x00'
p4575
tp4576
Rp4577
(i__main__
TreeNode
p4578
(dp4579
g5
(dp4580
sg44
I00
sbsI-1
(i__main__
TreeNode
p4581
(dp4582
g5
(dp4583
sg44
I00
sbssg44
I272
sbsg7
(g11
S'\x02\x00\x00\x00\x00\x00\x00\x00'
p4584
tp4585
Rp4586
(i__main__
TreeNode
p4587
(dp4588
g5
(dp4589
sg44
I00
sbsI-1
(i__main__
TreeNode
p4590
(dp4591
g5
(dp4592
sg44
I00
sbssg44
I177
sbsg7
(g11
S'\x02\x00\x00\x00\x00\x00\x00\x00'
p4593
tp4594
Rp4595
(i__main__
TreeNode
p4596
(dp4597
g5
(dp4598
sg44
I01
sbsI-1
(i__main__
TreeNode
p4599
(dp4600
g5
(dp4601
sg44
I00
sbssg44
I174
sbsg7
(g11
S'\x06\x00\x00\x00\x00\x00\x00\x00'
p4602
tp4603
Rp4604
(i__main__
TreeNode
p4605
(dp4606
g5
(dp4607
g7
(g11
S'\x01\x00\x00\x00\x00\x00\x00\x00'
p4608
tp4609
Rp4610
(i__main__
TreeNode
p4611
(dp4612
g5
(dp4613
sg44
I00
sbsg7
(g11
S'\x02\x00\x00\x00\x00\x00\x00\x00'
p4614
tp4615
Rp4616
(i__main__
TreeNode
p4617
(dp4618
g5
(dp4619
sg44
I00
sbsI-1
(i__main__
TreeNode
p4620
(dp4621
g5
(dp4622
sg44
I00
sbssg44
I185
sbsg7
(g11
S'\x07\x00\x00\x00\x00\x00\x00\x00'
p4623
tp4624
Rp4625
(i__main__
TreeNode
p4626
(dp4627
g5
(dp4628
sg44
I00
sbsI-1
(i__main__
TreeNode
p4629
(dp4630
g5
(dp4631
sg44
I00
sbssg44
I273
sbsg7
(g11
S'\x02\x00\x00\x00\x00\x00\x00\x00'
p4632
tp4633
Rp4634
(i__main__
TreeNode
p4635
(dp4636
g5
(dp4637
sg44
I00
sbsg7
(g11
S'\x03\x00\x00\x00\x00\x00\x00\x00'
p4638
tp4639
Rp4640
(i__main__
TreeNode
p4641
(dp4642
g5
(dp4643
g7
(g11
S'\x02\x00\x00\x00\x00\x00\x00\x00'
p4644
tp4645
Rp4646
(i__main__
TreeNode
p4647
(dp4648
g5
(dp4649
g7
(g11
S'\x03\x00\x00\x00\x00\x00\x00\x00'
p4650
tp4651
Rp4652
(i__main__
TreeNode
p4653
(dp4654
g5
(dp4655
sg44
I01
sbsg7
(g11
S'\x05\x00\x00\x00\x00\x00\x00\x00'
p4656
tp4657
Rp4658
(i__main__
TreeNode
p4659
(dp4660
g5
(dp4661
sg44
I00
sbsI-1
(i__main__
TreeNode
p4662
(dp4663
g5
(dp4664
sg44
I01
sbssg44
I163
sbsg7
(g11
S'\x03\x00\x00\x00\x00\x00\x00\x00'
p4665
tp4666
Rp4667
(i__main__
TreeNode
p4668
(dp4669
g5
(dp4670
sg44
I00
sbsg7
(g11
S'\x04\x00\x00\x00\x00\x00\x00\x00'
p4671
tp4672
Rp4673
(i__main__
TreeNode
p4674
(dp4675
g5
(dp4676
sg44
I00
sbsI-1
(i__main__
TreeNode
p4677
(dp4678
g5
(dp4679
sg44
I00
sbssg44
I86
sbsg7
(g11
S'\x04\x00\x00\x00\x00\x00\x00\x00'
p4680
tp4681
Rp4682
(i__main__
TreeNode
p4683
(dp4684
g5
(dp4685
sg44
I01
sbsg7
(g11
S'\x05\x00\x00\x00\x00\x00\x00\x00'
p4686
tp4687
Rp4688
(i__main__
TreeNode
p4689
(dp4690
g5
(dp4691
g7
(g11
S'\x02\x00\x00\x00\x00\x00\x00\x00'
p4692
tp4693
Rp4694
(i__main__
TreeNode
p4695
(dp4696
g5
(dp4697
g7
(g11
S'\x01\x00\x00\x00\x00\x00\x00\x00'
p4698
tp4699
Rp4700
(i__main__
TreeNode
p4701
(dp4702
g5
(dp4703
sg44
I01
sbsg7
(g11
S'\x04\x00\x00\x00\x00\x00\x00\x00'
p4704
tp4705
Rp4706
(i__main__
TreeNode
p4707
(dp4708
g5
(dp4709
sg44
I00
sbsI-1
(i__main__
TreeNode
p4710
(dp4711
g5
(dp4712
sg44
I01
sbssg44
I81
sbsg7
(g11
S'\x03\x00\x00\x00\x00\x00\x00\x00'
p4713
tp4714
Rp4715
(i__main__
TreeNode
p4716
(dp4717
g5
(dp4718
sg44
I00
sbsg7
(g11
S'\x04\x00\x00\x00\x00\x00\x00\x00'
p4719
tp4720
Rp4721
(i__main__
TreeNode
p4722
(dp4723
g5
(dp4724
g7
(g11
S'\x01\x00\x00\x00\x00\x00\x00\x00'
p4725
tp4726
Rp4727
(i__main__
TreeNode
p4728
(dp4729
g5
(dp4730
sg44
I00
sbsg7
(g11
S'\x02\x00\x00\x00\x00\x00\x00\x00'
p4731
tp4732
Rp4733
(i__main__
TreeNode
p4734
(dp4735
g5
(dp4736
sg44
I01
sbsg7
(g11
S'\x03\x00\x00\x00\x00\x00\x00\x00'
p4737
tp4738
Rp4739
(i__main__
TreeNode
p4740
(dp4741
g5
(dp4742
sg44
I00
sbsg7
(g11
S'\x04\x00\x00\x00\x00\x00\x00\x00'
p4743
tp4744
Rp4745
(i__main__
TreeNode
p4746
(dp4747
g5
(dp4748
sg44
I00
sbsI-1
(i__main__
TreeNode
p4749
(dp4750
g5
(dp4751
sg44
I00
sbssg44
I86
sbsg7
(g11
S'\x05\x00\x00\x00\x00\x00\x00\x00'
p4752
tp4753
Rp4754
(i__main__
TreeNode
p4755
(dp4756
g5
(dp4757
g7
(g11
S'\x01\x00\x00\x00\x00\x00\x00\x00'
p4758
tp4759
Rp4760
(i__main__
TreeNode
p4761
(dp4762
g5
(dp4763
sg44
I01
sbsg7
(g11
S'\x02\x00\x00\x00\x00\x00\x00\x00'
p4764
tp4765
Rp4766
(i__main__
TreeNode
p4767
(dp4768
g5
(dp4769
sg44
I00
sbsI-1
(i__main__
TreeNode
p4770
(dp4771
g5
(dp4772
sg44
I01
sbssg44
I272
sbsg7
(g11
S'\x06\x00\x00\x00\x00\x00\x00\x00'
p4773
tp4774
Rp4775
(i__main__
TreeNode
p4776
(dp4777
g5
(dp4778
sg44
I00
sbsI-1
(i__main__
TreeNode
p4779
(dp4780
g5
(dp4781
sg44
I00
sbssg44
I87
sbsI-1
(i__main__
TreeNode
p4782
(dp4783
g5
(dp4784
sg44
I00
sbssg44
I84
sbsg7
(g11
S'\x03\x00\x00\x00\x00\x00\x00\x00'
p4785
tp4786
Rp4787
(i__main__
TreeNode
p4788
(dp4789
g5
(dp4790
g7
(g11
S'\x01\x00\x00\x00\x00\x00\x00\x00'
p4791
tp4792
Rp4793
(i__main__
TreeNode
p4794
(dp4795
g5
(dp4796
g7
(g11
S'\x01\x00\x00\x00\x00\x00\x00\x00'
p4797
tp4798
Rp4799
(i__main__
TreeNode
p4800
(dp4801
g5
(dp4802
sg44
I00
sbsg7
(g11
S'\x02\x00\x00\x00\x00\x00\x00\x00'
p4803
tp4804
Rp4805
(i__main__
TreeNode
p4806
(dp4807
g5
(dp4808
g7
(g11
S'\x03\x00\x00\x00\x00\x00\x00\x00'
p4809
tp4810
Rp4811
(i__main__
TreeNode
p4812
(dp4813
g5
(dp4814
sg44
I01
sbsg7
(g11
S'\x04\x00\x00\x00\x00\x00\x00\x00'
p4815
tp4816
Rp4817
(i__main__
TreeNode
p4818
(dp4819
g5
(dp4820
sg44
I00
sbsI-1
(i__main__
TreeNode
p4821
(dp4822
g5
(dp4823
sg44
I00
sbssg44
I82
sbsg7
(g11
S'\x03\x00\x00\x00\x00\x00\x00\x00'
p4824
tp4825
Rp4826
(i__main__
TreeNode
p4827
(dp4828
g5
(dp4829
g7
(g11
S'\x02\x00\x00\x00\x00\x00\x00\x00'
p4830
tp4831
Rp4832
(i__main__
TreeNode
p4833
(dp4834
g5
(dp4835
sg44
I01
sbsg7
(g11
S'\x03\x00\x00\x00\x00\x00\x00\x00'
p4836
tp4837
Rp4838
(i__main__
TreeNode
p4839
(dp4840
g5
(dp4841
sg44
I00
sbsg7
(g11
S'\x04\x00\x00\x00\x00\x00\x00\x00'
p4842
tp4843
Rp4844
(i__main__
TreeNode
p4845
(dp4846
g5
(dp4847
sg44
I00
sbsI-1
(i__main__
TreeNode
p4848
(dp4849
g5
(dp4850
sg44
I00
sbssg44
I88
sbsg7
(g11
S'\x04\x00\x00\x00\x00\x00\x00\x00'
p4851
tp4852
Rp4853
(i__main__
TreeNode
p4854
(dp4855
g5
(dp4856
g7
(g11
S'\x01\x00\x00\x00\x00\x00\x00\x00'
p4857
tp4858
Rp4859
(i__main__
TreeNode
p4860
(dp4861
g5
(dp4862
sg44
I01
sbsg7
(g11
S'\x03\x00\x00\x00\x00\x00\x00\x00'
p4863
tp4864
Rp4865
(i__main__
TreeNode
p4866
(dp4867
g5
(dp4868
sg44
I00
sbsI-1
(i__main__
TreeNode
p4869
(dp4870
g5
(dp4871
sg44
I00
sbssg44
I81
sbsg7
(g11
S'\x05\x00\x00\x00\x00\x00\x00\x00'
p4872
tp4873
Rp4874
(i__main__
TreeNode
p4875
(dp4876
g5
(dp4877
sg44
I00
sbsg7
(g11
S'\x06\x00\x00\x00\x00\x00\x00\x00'
p4878
tp4879
Rp4880
(i__main__
TreeNode
p4881
(dp4882
g5
(dp4883
sg44
I00
sbsg7
(g11
S'\x07\x00\x00\x00\x00\x00\x00\x00'
p4884
tp4885
Rp4886
(i__main__
TreeNode
p4887
(dp4888
g5
(dp4889
sg44
I00
sbsI-1
(i__main__
TreeNode
p4890
(dp4891
g5
(dp4892
sg44
I00
sbssg44
I87
sbsg7
(g11
S'\x02\x00\x00\x00\x00\x00\x00\x00'
p4893
tp4894
Rp4895
(i__main__
TreeNode
p4896
(dp4897
g5
(dp4898
g7
(g11
S'\x01\x00\x00\x00\x00\x00\x00\x00'
p4899
tp4900
Rp4901
(i__main__
TreeNode
p4902
(dp4903
g5
(dp4904
sg44
I00
sbsg7
(g11
S'\x02\x00\x00\x00\x00\x00\x00\x00'
p4905
tp4906
Rp4907
(i__main__
TreeNode
p4908
(dp4909
g5
(dp4910
sg44
I01
sbsg7
(g11
S'\x03\x00\x00\x00\x00\x00\x00\x00'
p4911
tp4912
Rp4913
(i__main__
TreeNode
p4914
(dp4915
g5
(dp4916
sg44
I00
sbsg7
(g11
S'\x04\x00\x00\x00\x00\x00\x00\x00'
p4917
tp4918
Rp4919
(i__main__
TreeNode
p4920
(dp4921
g5
(dp4922
sg44
I00
sbsg7
(g11
S'\x05\x00\x00\x00\x00\x00\x00\x00'
p4923
tp4924
Rp4925
(i__main__
TreeNode
p4926
(dp4927
g5
(dp4928
sg44
I00
sbsg7
(g11
S'\x06\x00\x00\x00\x00\x00\x00\x00'
p4929
tp4930
Rp4931
(i__main__
TreeNode
p4932
(dp4933
g5
(dp4934
sg44
I01
sbsI-1
(i__main__
TreeNode
p4935
(dp4936
g5
(dp4937
sg44
I00
sbssg44
I87
sbsg7
(g11
S'\x03\x00\x00\x00\x00\x00\x00\x00'
p4938
tp4939
Rp4940
(i__main__
TreeNode
p4941
(dp4942
g5
(dp4943
g7
(g11
S'\x01\x00\x00\x00\x00\x00\x00\x00'
p4944
tp4945
Rp4946
(i__main__
TreeNode
p4947
(dp4948
g5
(dp4949
sg44
I00
sbsg7
(g11
S'\x02\x00\x00\x00\x00\x00\x00\x00'
p4950
tp4951
Rp4952
(i__main__
TreeNode
p4953
(dp4954
g5
(dp4955
sg44
I00
sbsg7
(g11
S'\x03\x00\x00\x00\x00\x00\x00\x00'
p4956
tp4957
Rp4958
(i__main__
TreeNode
p4959
(dp4960
g5
(dp4961
sg44
I01
sbsg7
(g11
S'\x04\x00\x00\x00\x00\x00\x00\x00'
p4962
tp4963
Rp4964
(i__main__
TreeNode
p4965
(dp4966
g5
(dp4967
sg44
I00
sbsI-1
(i__main__
TreeNode
p4968
(dp4969
g5
(dp4970
sg44
I00
sbssg44
I273
sbsg7
(g11
S'\x04\x00\x00\x00\x00\x00\x00\x00'
p4971
tp4972
Rp4973
(i__main__
TreeNode
p4974
(dp4975
g5
(dp4976
sg44
I00
sbsg7
(g11
S'\x05\x00\x00\x00\x00\x00\x00\x00'
p4977
tp4978
Rp4979
(i__main__
TreeNode
p4980
(dp4981
g5
(dp4982
sg44
I00
sbsI-1
(i__main__
TreeNode
p4983
(dp4984
g5
(dp4985
sg44
I00
sbssg44
I84
sbsg7
(g11
S'\x04\x00\x00\x00\x00\x00\x00\x00'
p4986
tp4987
Rp4988
(i__main__
TreeNode
p4989
(dp4990
g5
(dp4991
g7
(g11
S'\x01\x00\x00\x00\x00\x00\x00\x00'
p4992
tp4993
Rp4994
(i__main__
TreeNode
p4995
(dp4996
g5
(dp4997
g7
(g11
S'\x01\x00\x00\x00\x00\x00\x00\x00'
p4998
tp4999
Rp5000
(i__main__
TreeNode
p5001
(dp5002
g5
(dp5003
sg44
I00
sbsg7
(g11
S'\x02\x00\x00\x00\x00\x00\x00\x00'
p5004
tp5005
Rp5006
(i__main__
TreeNode
p5007
(dp5008
g5
(dp5009
sg44
I00
sbsg7
(g11
S'\x03\x00\x00\x00\x00\x00\x00\x00'
p5010
tp5011
Rp5012
(i__main__
TreeNode
p5013
(dp5014
g5
(dp5015
sg44
I00
sbsg7
(g11
S'\x04\x00\x00\x00\x00\x00\x00\x00'
p5016
tp5017
Rp5018
(i__main__
TreeNode
p5019
(dp5020
g5
(dp5021
sg44
I00
sbsg7
(g11
S'\x05\x00\x00\x00\x00\x00\x00\x00'
p5022
tp5023
Rp5024
(i__main__
TreeNode
p5025
(dp5026
g5
(dp5027
sg44
I00
sbsg7
(g11
S'\x06\x00\x00\x00\x00\x00\x00\x00'
p5028
tp5029
Rp5030
(i__main__
TreeNode
p5031
(dp5032
g5
(dp5033
sg44
I00
sbsg7
(g11
S'\x07\x00\x00\x00\x00\x00\x00\x00'
p5034
tp5035
Rp5036
(i__main__
TreeNode
p5037
(dp5038
g5
(dp5039
g7
(g11
S'\x02\x00\x00\x00\x00\x00\x00\x00'
p5040
tp5041
Rp5042
(i__main__
TreeNode
p5043
(dp5044
g5
(dp5045
sg44
I00
sbsg7
(g11
S'\x03\x00\x00\x00\x00\x00\x00\x00'
p5046
tp5047
Rp5048
(i__main__
TreeNode
p5049
(dp5050
g5
(dp5051
sg44
I01
sbsI-1
(i__main__
TreeNode
p5052
(dp5053
g5
(dp5054
sg44
I00
sbssg44
I82
sbsI-1
(i__main__
TreeNode
p5055
(dp5056
g5
(dp5057
sg44
I00
sbssg44
I87
sbsg7
(g11
S'\x02\x00\x00\x00\x00\x00\x00\x00'
p5058
tp5059
Rp5060
(i__main__
TreeNode
p5061
(dp5062
g5
(dp5063
sg44
I01
sbsg7
(g11
S'\x04\x00\x00\x00\x00\x00\x00\x00'
p5064
tp5065
Rp5066
(i__main__
TreeNode
p5067
(dp5068
g5
(dp5069
sg44
I00
sbsI-1
(i__main__
TreeNode
p5070
(dp5071
g5
(dp5072
sg44
I00
sbssg44
I84
sbsg7
(g11
S'\x05\x00\x00\x00\x00\x00\x00\x00'
p5073
tp5074
Rp5075
(i__main__
TreeNode
p5076
(dp5077
g5
(dp5078
g7
(g11
S'\x01\x00\x00\x00\x00\x00\x00\x00'
p5079
tp5080
Rp5081
(i__main__
TreeNode
p5082
(dp5083
g5
(dp5084
g7
(g11
S'\x01\x00\x00\x00\x00\x00\x00\x00'
p5085
tp5086
Rp5087
(i__main__
TreeNode
p5088
(dp5089
g5
(dp5090
sg44
I00
sbsg7
(g11
S'\x02\x00\x00\x00\x00\x00\x00\x00'
p5091
tp5092
Rp5093
(i__main__
TreeNode
p5094
(dp5095
g5
(dp5096
g7
(g11
S'\x03\x00\x00\x00\x00\x00\x00\x00'
p5097
tp5098
Rp5099
(i__main__
TreeNode
p5100
(dp5101
g5
(dp5102
sg44
I01
sbsg7
(g11
S'\x04\x00\x00\x00\x00\x00\x00\x00'
p5103
tp5104
Rp5105
(i__main__
TreeNode
p5106
(dp5107
g5
(dp5108
sg44
I00
sbsI-1
(i__main__
TreeNode
p5109
(dp5110
g5
(dp5111
sg44
I00
sbssg44
I81
sbsg7
(g11
S'\x03\x00\x00\x00\x00\x00\x00\x00'
p5112
tp5113
Rp5114
(i__main__
TreeNode
p5115
(dp5116
g5
(dp5117
sg44
I00
sbsg7
(g11
S'\x04\x00\x00\x00\x00\x00\x00\x00'
p5118
tp5119
Rp5120
(i__main__
TreeNode
p5121
(dp5122
g5
(dp5123
sg44
I00
sbsg7
(g11
S'\x05\x00\x00\x00\x00\x00\x00\x00'
p5124
tp5125
Rp5126
(i__main__
TreeNode
p5127
(dp5128
g5
(dp5129
sg44
I00
sbsg7
(g11
S'\x06\x00\x00\x00\x00\x00\x00\x00'
p5130
tp5131
Rp5132
(i__main__
TreeNode
p5133
(dp5134
g5
(dp5135
sg44
I00
sbsg7
(g11
S'\x07\x00\x00\x00\x00\x00\x00\x00'
p5136
tp5137
Rp5138
(i__main__
TreeNode
p5139
(dp5140
g5
(dp5141
sg44
I00
sbsI-1
(i__main__
TreeNode
p5142
(dp5143
g5
(dp5144
sg44
I00
sbssg44
I87
sbsg7
(g11
S'\x02\x00\x00\x00\x00\x00\x00\x00'
p5145
tp5146
Rp5147
(i__main__
TreeNode
p5148
(dp5149
g5
(dp5150
g7
(g11
S'\x04\x00\x00\x00\x00\x00\x00\x00'
p5151
tp5152
Rp5153
(i__main__
TreeNode
p5154
(dp5155
g5
(dp5156
sg44
I00
sbsg7
(g11
S'\x05\x00\x00\x00\x00\x00\x00\x00'
p5157
tp5158
Rp5159
(i__main__
TreeNode
p5160
(dp5161
g5
(dp5162
sg44
I01
sbsI-1
(i__main__
TreeNode
p5163
(dp5164
g5
(dp5165
sg44
I00
sbssg44
I88
sbsg7
(g11
S'\x03\x00\x00\x00\x00\x00\x00\x00'
p5166
tp5167
Rp5168
(i__main__
TreeNode
p5169
(dp5170
g5
(dp5171
sg44
I00
sbsg7
(g11
S'\x04\x00\x00\x00\x00\x00\x00\x00'
p5172
tp5173
Rp5174
(i__main__
TreeNode
p5175
(dp5176
g5
(dp5177
sg44
I00
sbsg7
(g11
S'\x05\x00\x00\x00\x00\x00\x00\x00'
p5178
tp5179
Rp5180
(i__main__
TreeNode
p5181
(dp5182
g5
(dp5183
sg44
I00
sbsI-1
(i__main__
TreeNode
p5184
(dp5185
g5
(dp5186
sg44
I00
sbssg44
I84
sbsg7
(g11
S'\x06\x00\x00\x00\x00\x00\x00\x00'
p5187
tp5188
Rp5189
(i__main__
TreeNode
p5190
(dp5191
g5
(dp5192
sg44
I00
sbsg7
(g11
S'\x07\x00\x00\x00\x00\x00\x00\x00'
p5193
tp5194
Rp5195
(i__main__
TreeNode
p5196
(dp5197
g5
(dp5198
g7
(g11
S'\x01\x00\x00\x00\x00\x00\x00\x00'
p5199
tp5200
Rp5201
(i__main__
TreeNode
p5202
(dp5203
g5
(dp5204
sg44
I00
sbsg7
(g11
S'\x02\x00\x00\x00\x00\x00\x00\x00'
p5205
tp5206
Rp5207
(i__main__
TreeNode
p5208
(dp5209
g5
(dp5210
sg44
I00
sbsg7
(g11
S'\x03\x00\x00\x00\x00\x00\x00\x00'
p5211
tp5212
Rp5213
(i__main__
TreeNode
p5214
(dp5215
g5
(dp5216
sg44
I00
sbsg7
(g11
S'\x04\x00\x00\x00\x00\x00\x00\x00'
p5217
tp5218
Rp5219
(i__main__
TreeNode
p5220
(dp5221
g5
(dp5222
sg44
I00
sbsg7
(g11
S'\x05\x00\x00\x00\x00\x00\x00\x00'
p5223
tp5224
Rp5225
(i__main__
TreeNode
p5226
(dp5227
g5
(dp5228
sg44
I01
sbsI-1
(i__main__
TreeNode
p5229
(dp5230
g5
(dp5231
sg44
I00
sbssg44
I84
sbsg7
(g11
S'\x08\x00\x00\x00\x00\x00\x00\x00'
p5232
tp5233
Rp5234
(i__main__
TreeNode
p5235
(dp5236
g5
(dp5237
g7
(g11
S'\x01\x00\x00\x00\x00\x00\x00\x00'
p5238
tp5239
Rp5240
(i__main__
TreeNode
p5241
(dp5242
g5
(dp5243
g7
(g11
S'\x01\x00\x00\x00\x00\x00\x00\x00'
p5244
tp5245
Rp5246
(i__main__
TreeNode
p5247
(dp5248
g5
(dp5249
sg44
I00
sbsg7
(g11
S'\x02\x00\x00\x00\x00\x00\x00\x00'
p5250
tp5251
Rp5252
(i__main__
TreeNode
p5253
(dp5254
g5
(dp5255
sg44
I00
sbsg7
(g11
S'\x05\x00\x00\x00\x00\x00\x00\x00'
p5256
tp5257
Rp5258
(i__main__
TreeNode
p5259
(dp5260
g5
(dp5261
sg44
I00
sbsI-1
(i__main__
TreeNode
p5262
(dp5263
g5
(dp5264
sg44
I00
sbssg44
I272
sbsg7
(g11
S'\x02\x00\x00\x00\x00\x00\x00\x00'
p5265
tp5266
Rp5267
(i__main__
TreeNode
p5268
(dp5269
g5
(dp5270
sg44
I00
sbsg7
(g11
S'\x03\x00\x00\x00\x00\x00\x00\x00'
p5271
tp5272
Rp5273
(i__main__
TreeNode
p5274
(dp5275
g5
(dp5276
sg44
I00
sbsg7
(g11
S'\x04\x00\x00\x00\x00\x00\x00\x00'
p5277
tp5278
Rp5279
(i__main__
TreeNode
p5280
(dp5281
g5
(dp5282
sg44
I01
sbsI-1
(i__main__
TreeNode
p5283
(dp5284
g5
(dp5285
sg44
I00
sbssg44
I84
sbsg7
(g11
S'\t\x00\x00\x00\x00\x00\x00\x00'
p5286
tp5287
Rp5288
(i__main__
TreeNode
p5289
(dp5290
g5
(dp5291
g7
(g11
S'\x01\x00\x00\x00\x00\x00\x00\x00'
p5292
tp5293
Rp5294
(i__main__
TreeNode
p5295
(dp5296
g5
(dp5297
sg44
I00
sbsg7
(g11
S'\x02\x00\x00\x00\x00\x00\x00\x00'
p5298
tp5299
Rp5300
(i__main__
TreeNode
p5301
(dp5302
g5
(dp5303
sg44
I00
sbsg7
(g11
S'\x03\x00\x00\x00\x00\x00\x00\x00'
p5304
tp5305
Rp5306
(i__main__
TreeNode
p5307
(dp5308
g5
(dp5309
sg44
I00
sbsg7
(g11
S'\x04\x00\x00\x00\x00\x00\x00\x00'
p5310
tp5311
Rp5312
(i__main__
TreeNode
p5313
(dp5314
g5
(dp5315
g7
(g11
S'\x01\x00\x00\x00\x00\x00\x00\x00'
p5316
tp5317
Rp5318
(i__main__
TreeNode
p5319
(dp5320
g5
(dp5321
sg44
I00
sbsg7
(g11
S'\x04\x00\x00\x00\x00\x00\x00\x00'
p5322
tp5323
Rp5324
(i__main__
TreeNode
p5325
(dp5326
g5
(dp5327
sg44
I01
sbsI-1
(i__main__
TreeNode
p5328
(dp5329
g5
(dp5330
sg44
I01
sbssg44
I81
sbsg7
(g11
S'\x05\x00\x00\x00\x00\x00\x00\x00'
p5331
tp5332
Rp5333
(i__main__
TreeNode
p5334
(dp5335
g5
(dp5336
sg44
I01
sbsI-1
(i__main__
TreeNode
p5337
(dp5338
g5
(dp5339
sg44
I00
sbssg44
I84
sbsg7
(g11
S'\n\x00\x00\x00\x00\x00\x00\x00'
p5340
tp5341
Rp5342
(i__main__
TreeNode
p5343
(dp5344
g5
(dp5345
g7
(g11
S'\x01\x00\x00\x00\x00\x00\x00\x00'
p5346
tp5347
Rp5348
(i__main__
TreeNode
p5349
(dp5350
g5
(dp5351
g7
(g11
S'\x02\x00\x00\x00\x00\x00\x00\x00'
p5352
tp5353
Rp5354
(i__main__
TreeNode
p5355
(dp5356
g5
(dp5357
sg44
I00
sbsg7
(g11
S'\x03\x00\x00\x00\x00\x00\x00\x00'
p5358
tp5359
Rp5360
(i__main__
TreeNode
p5361
(dp5362
g5
(dp5363
sg44
I00
sbsg7
(g11
S'\x05\x00\x00\x00\x00\x00\x00\x00'
p5364
tp5365
Rp5366
(i__main__
TreeNode
p5367
(dp5368
g5
(dp5369
sg44
I00
sbsI-1
(i__main__
TreeNode
p5370
(dp5371
g5
(dp5372
sg44
I00
sbssg44
I81
sbsg7
(g11
S'\x02\x00\x00\x00\x00\x00\x00\x00'
p5373
tp5374
Rp5375
(i__main__
TreeNode
p5376
(dp5377
g5
(dp5378
sg44
I00
sbsg7
(g11
S'\x03\x00\x00\x00\x00\x00\x00\x00'
p5379
tp5380
Rp5381
(i__main__
TreeNode
p5382
(dp5383
g5
(dp5384
sg44
I00
sbsg7
(g11
S'\x04\x00\x00\x00\x00\x00\x00\x00'
p5385
tp5386
Rp5387
(i__main__
TreeNode
p5388
(dp5389
g5
(dp5390
sg44
I00
sbsg7
(g11
S'\x05\x00\x00\x00\x00\x00\x00\x00'
p5391
tp5392
Rp5393
(i__main__
TreeNode
p5394
(dp5395
g5
(dp5396
sg44
I00
sbsg7
(g11
S'\x06\x00\x00\x00\x00\x00\x00\x00'
p5397
tp5398
Rp5399
(i__main__
TreeNode
p5400
(dp5401
g5
(dp5402
sg44
I00
sbsg7
(g11
S'\x07\x00\x00\x00\x00\x00\x00\x00'
p5403
tp5404
Rp5405
(i__main__
TreeNode
p5406
(dp5407
g5
(dp5408
g7
(g11
S'\x01\x00\x00\x00\x00\x00\x00\x00'
p5409
tp5410
Rp5411
(i__main__
TreeNode
p5412
(dp5413
g5
(dp5414
sg44
I00
sbsg7
(g11
S'\x02\x00\x00\x00\x00\x00\x00\x00'
p5415
tp5416
Rp5417
(i__main__
TreeNode
p5418
(dp5419
g5
(dp5420
sg44
I00
sbsg7
(g11
S'\x03\x00\x00\x00\x00\x00\x00\x00'
p5421
tp5422
Rp5423
(i__main__
TreeNode
p5424
(dp5425
g5
(dp5426
sg44
I00
sbsg7
(g11
S'\x05\x00\x00\x00\x00\x00\x00\x00'
p5427
tp5428
Rp5429
(i__main__
TreeNode
p5430
(dp5431
g5
(dp5432
sg44
I01
sbsI-1
(i__main__
TreeNode
p5433
(dp5434
g5
(dp5435
sg44
I00
sbssg44
I85
sbsI-1
(i__main__
TreeNode
p5436
(dp5437
g5
(dp5438
sg44
I00
sbssg44
I273
sbsg7
(g11
S'\x0b\x00\x00\x00\x00\x00\x00\x00'
p5439
tp5440
Rp5441
(i__main__
TreeNode
p5442
(dp5443
g5
(dp5444
g7
(g11
S'\x01\x00\x00\x00\x00\x00\x00\x00'
p5445
tp5446
Rp5447
(i__main__
TreeNode
p5448
(dp5449
g5
(dp5450
sg44
I01
sbsg7
(g11
S'\x02\x00\x00\x00\x00\x00\x00\x00'
p5451
tp5452
Rp5453
(i__main__
TreeNode
p5454
(dp5455
g5
(dp5456
g7
(g11
S'\x04\x00\x00\x00\x00\x00\x00\x00'
p5457
tp5458
Rp5459
(i__main__
TreeNode
p5460
(dp5461
g5
(dp5462
sg44
I00
sbsg7
(g11
S'\x06\x00\x00\x00\x00\x00\x00\x00'
p5463
tp5464
Rp5465
(i__main__
TreeNode
p5466
(dp5467
g5
(dp5468
sg44
I00
sbsI-1
(i__main__
TreeNode
p5469
(dp5470
g5
(dp5471
sg44
I00
sbssg44
I87
sbsg7
(g11
S'\x03\x00\x00\x00\x00\x00\x00\x00'
p5472
tp5473
Rp5474
(i__main__
TreeNode
p5475
(dp5476
g5
(dp5477
sg44
I00
sbsg7
(g11
S'\x04\x00\x00\x00\x00\x00\x00\x00'
p5478
tp5479
Rp5480
(i__main__
TreeNode
p5481
(dp5482
g5
(dp5483
sg44
I00
sbsg7
(g11
S'\x05\x00\x00\x00\x00\x00\x00\x00'
p5484
tp5485
Rp5486
(i__main__
TreeNode
p5487
(dp5488
g5
(dp5489
sg44
I00
sbsI-1
(i__main__
TreeNode
p5490
(dp5491
g5
(dp5492
sg44
I00
sbssg44
I81
sbsg7
(g11
S'\x0c\x00\x00\x00\x00\x00\x00\x00'
p5493
tp5494
Rp5495
(i__main__
TreeNode
p5496
(dp5497
g5
(dp5498
g7
(g11
S'\x01\x00\x00\x00\x00\x00\x00\x00'
p5499
tp5500
Rp5501
(i__main__
TreeNode
p5502
(dp5503
g5
(dp5504
sg44
I00
sbsg7
(g11
S'\x02\x00\x00\x00\x00\x00\x00\x00'
p5505
tp5506
Rp5507
(i__main__
TreeNode
p5508
(dp5509
g5
(dp5510
sg44
I00
sbsg7
(g11
S'\x04\x00\x00\x00\x00\x00\x00\x00'
p5511
tp5512
Rp5513
(i__main__
TreeNode
p5514
(dp5515
g5
(dp5516
sg44
I00
sbsI-1
(i__main__
TreeNode
p5517
(dp5518
g5
(dp5519
sg44
I00
sbssg44
I84
sbsg7
(g11
S'\r\x00\x00\x00\x00\x00\x00\x00'
p5520
tp5521
Rp5522
(i__main__
TreeNode
p5523
(dp5524
g5
(dp5525
g7
(g11
S'\x01\x00\x00\x00\x00\x00\x00\x00'
p5526
tp5527
Rp5528
(i__main__
TreeNode
p5529
(dp5530
g5
(dp5531
g7
(g11
S'\x01\x00\x00\x00\x00\x00\x00\x00'
p5532
tp5533
Rp5534
(i__main__
TreeNode
p5535
(dp5536
g5
(dp5537
sg44
I00
sbsg7
(g11
S'\x02\x00\x00\x00\x00\x00\x00\x00'
p5538
tp5539
Rp5540
(i__main__
TreeNode
p5541
(dp5542
g5
(dp5543
sg44
I01
sbsg7
(g11
S'\x03\x00\x00\x00\x00\x00\x00\x00'
p5544
tp5545
Rp5546
(i__main__
TreeNode
p5547
(dp5548
g5
(dp5549
sg44
I00
sbsg7
(g11
S'\x04\x00\x00\x00\x00\x00\x00\x00'
p5550
tp5551
Rp5552
(i__main__
TreeNode
p5553
(dp5554
g5
(dp5555
sg44
I00
sbsg7
(g11
S'\x05\x00\x00\x00\x00\x00\x00\x00'
p5556
tp5557
Rp5558
(i__main__
TreeNode
p5559
(dp5560
g5
(dp5561
sg44
I00
sbsI-1
(i__main__
TreeNode
p5562
(dp5563
g5
(dp5564
sg44
I00
sbssg44
I128
sbsg7
(g11
S'\x02\x00\x00\x00\x00\x00\x00\x00'
p5565
tp5566
Rp5567
(i__main__
TreeNode
p5568
(dp5569
g5
(dp5570
g7
(g11
S'\x01\x00\x00\x00\x00\x00\x00\x00'
p5571
tp5572
Rp5573
(i__main__
TreeNode
p5574
(dp5575
g5
(dp5576
sg44
I00
sbsg7
(g11
S'\x02\x00\x00\x00\x00\x00\x00\x00'
p5577
tp5578
Rp5579
(i__main__
TreeNode
p5580
(dp5581
g5
(dp5582
sg44
I00
sbsg7
(g11
S'\x03\x00\x00\x00\x00\x00\x00\x00'
p5583
tp5584
Rp5585
(i__main__
TreeNode
p5586
(dp5587
g5
(dp5588
sg44
I01
sbsg7
(g11
S'\x04\x00\x00\x00\x00\x00\x00\x00'
p5589
tp5590
Rp5591
(i__main__
TreeNode
p5592
(dp5593
g5
(dp5594
sg44
I00
sbsg7
(g11
S'\x05\x00\x00\x00\x00\x00\x00\x00'
p5595
tp5596
Rp5597
(i__main__
TreeNode
p5598
(dp5599
g5
(dp5600
sg44
I01
sbsI-1
(i__main__
TreeNode
p5601
(dp5602
g5
(dp5603
sg44
I00
sbssg44
I81
sbsg7
(g11
S'\x03\x00\x00\x00\x00\x00\x00\x00'
p5604
tp5605
Rp5606
(i__main__
TreeNode
p5607
(dp5608
g5
(dp5609
g7
(g11
S'\x02\x00\x00\x00\x00\x00\x00\x00'
p5610
tp5611
Rp5612
(i__main__
TreeNode
p5613
(dp5614
g5
(dp5615
sg44
I01
sbsg7
(g11
S'\x03\x00\x00\x00\x00\x00\x00\x00'
p5616
tp5617
Rp5618
(i__main__
TreeNode
p5619
(dp5620
g5
(dp5621
sg44
I00
sbsg7
(g11
S'\x04\x00\x00\x00\x00\x00\x00\x00'
p5622
tp5623
Rp5624
(i__main__
TreeNode
p5625
(dp5626
g5
(dp5627
sg44
I01
sbsg7
(g11
S'\x06\x00\x00\x00\x00\x00\x00\x00'
p5628
tp5629
Rp5630
(i__main__
TreeNode
p5631
(dp5632
g5
(dp5633
sg44
I00
sbsg7
(g11
S'\x07\x00\x00\x00\x00\x00\x00\x00'
p5634
tp5635
Rp5636
(i__main__
TreeNode
p5637
(dp5638
g5
(dp5639
sg44
I01
sbsI-1
(i__main__
TreeNode
p5640
(dp5641
g5
(dp5642
sg44
I00
sbssg44
I87
sbsg7
(g11
S'\x04\x00\x00\x00\x00\x00\x00\x00'
p5643
tp5644
Rp5645
(i__main__
TreeNode
p5646
(dp5647
g5
(dp5648
g7
(g11
S'\x03\x00\x00\x00\x00\x00\x00\x00'
p5649
tp5650
Rp5651
(i__main__
TreeNode
p5652
(dp5653
g5
(dp5654
sg44
I00
sbsg7
(g11
S'\x02\x00\x00\x00\x00\x00\x00\x00'
p5655
tp5656
Rp5657
(i__main__
TreeNode
p5658
(dp5659
g5
(dp5660
sg44
I01
sbsg7
(g11
S'\x06\x00\x00\x00\x00\x00\x00\x00'
p5661
tp5662
Rp5663
(i__main__
TreeNode
p5664
(dp5665
g5
(dp5666
sg44
I00
sbsg7
(g11
S'\x05\x00\x00\x00\x00\x00\x00\x00'
p5667
tp5668
Rp5669
(i__main__
TreeNode
p5670
(dp5671
g5
(dp5672
g7
(g11
S'\x01\x00\x00\x00\x00\x00\x00\x00'
p5673
tp5674
Rp5675
(i__main__
TreeNode
p5676
(dp5677
g5
(dp5678
sg44
I01
sbsg7
(g11
S'\x02\x00\x00\x00\x00\x00\x00\x00'
p5679
tp5680
Rp5681
(i__main__
TreeNode
p5682
(dp5683
g5
(dp5684
sg44
I00
sbsI-1
(i__main__
TreeNode
p5685
(dp5686
g5
(dp5687
sg44
I00
sbssg44
I81
sbsI-1
(i__main__
TreeNode
p5688
(dp5689
g5
(dp5690
sg44
I00
sbssg44
I87
sbsg7
(g11
S'\x05\x00\x00\x00\x00\x00\x00\x00'
p5691
tp5692
Rp5693
(i__main__
TreeNode
p5694
(dp5695
g5
(dp5696
sg44
I00
sbsg7
(g11
S'\x06\x00\x00\x00\x00\x00\x00\x00'
p5697
tp5698
Rp5699
(i__main__
TreeNode
p5700
(dp5701
g5
(dp5702
sg44
I00
sbsg7
(g11
S'\x07\x00\x00\x00\x00\x00\x00\x00'
p5703
tp5704
Rp5705
(i__main__
TreeNode
p5706
(dp5707
g5
(dp5708
sg44
I00
sbsI-1
(i__main__
TreeNode
p5709
(dp5710
g5
(dp5711
sg44
I00
sbssg44
I273
sbsg7
(g11
S'\x0e\x00\x00\x00\x00\x00\x00\x00'
p5712
tp5713
Rp5714
(i__main__
TreeNode
p5715
(dp5716
g5
(dp5717
sg44
I00
sbsg7
(g11
S'\x0f\x00\x00\x00\x00\x00\x00\x00'
p5718
tp5719
Rp5720
(i__main__
TreeNode
p5721
(dp5722
g5
(dp5723
sg44
I00
sbsg7
(g11
S'\x10\x00\x00\x00\x00\x00\x00\x00'
p5724
tp5725
Rp5726
(i__main__
TreeNode
p5727
(dp5728
g5
(dp5729
g7
(g11
S'\x01\x00\x00\x00\x00\x00\x00\x00'
p5730
tp5731
Rp5732
(i__main__
TreeNode
p5733
(dp5734
g5
(dp5735
sg44
I01
sbsg7
(g11
S'\x02\x00\x00\x00\x00\x00\x00\x00'
p5736
tp5737
Rp5738
(i__main__
TreeNode
p5739
(dp5740
g5
(dp5741
sg44
I00
sbsg7
(g11
S'\x03\x00\x00\x00\x00\x00\x00\x00'
p5742
tp5743
Rp5744
(i__main__
TreeNode
p5745
(dp5746
g5
(dp5747
sg44
I00
sbsg7
(g11
S'\x04\x00\x00\x00\x00\x00\x00\x00'
p5748
tp5749
Rp5750
(i__main__
TreeNode
p5751
(dp5752
g5
(dp5753
sg44
I00
sbsg7
(g11
S'\x05\x00\x00\x00\x00\x00\x00\x00'
p5754
tp5755
Rp5756
(i__main__
TreeNode
p5757
(dp5758
g5
(dp5759
sg44
I00
sbsI-1
(i__main__
TreeNode
p5760
(dp5761
g5
(dp5762
sg44
I00
sbssg44
I81
sbsg7
(g11
S'\x11\x00\x00\x00\x00\x00\x00\x00'
p5763
tp5764
Rp5765
(i__main__
TreeNode
p5766
(dp5767
g5
(dp5768
sg44
I00
sbsg7
(g11
S'\x12\x00\x00\x00\x00\x00\x00\x00'
p5769
tp5770
Rp5771
(i__main__
TreeNode
p5772
(dp5773
g5
(dp5774
g7
(g11
S'\x01\x00\x00\x00\x00\x00\x00\x00'
p5775
tp5776
Rp5777
(i__main__
TreeNode
p5778
(dp5779
g5
(dp5780
g7
(g11
S'\x01\x00\x00\x00\x00\x00\x00\x00'
p5781
tp5782
Rp5783
(i__main__
TreeNode
p5784
(dp5785
g5
(dp5786
sg44
I00
sbsg7
(g11
S'\x02\x00\x00\x00\x00\x00\x00\x00'
p5787
tp5788
Rp5789
(i__main__
TreeNode
p5790
(dp5791
g5
(dp5792
sg44
I00
sbsg7
(g11
S'\x03\x00\x00\x00\x00\x00\x00\x00'
p5793
tp5794
Rp5795
(i__main__
TreeNode
p5796
(dp5797
g5
(dp5798
sg44
I00
sbsg7
(g11
S'\x04\x00\x00\x00\x00\x00\x00\x00'
p5799
tp5800
Rp5801
(i__main__
TreeNode
p5802
(dp5803
g5
(dp5804
sg44
I00
sbsg7
(g11
S'\x05\x00\x00\x00\x00\x00\x00\x00'
p5805
tp5806
Rp5807
(i__main__
TreeNode
p5808
(dp5809
g5
(dp5810
sg44
I00
sbsg7
(g11
S'\x06\x00\x00\x00\x00\x00\x00\x00'
p5811
tp5812
Rp5813
(i__main__
TreeNode
p5814
(dp5815
g5
(dp5816
sg44
I00
sbsg7
(g11
S'\x07\x00\x00\x00\x00\x00\x00\x00'
p5817
tp5818
Rp5819
(i__main__
TreeNode
p5820
(dp5821
g5
(dp5822
sg44
I00
sbsI-1
(i__main__
TreeNode
p5823
(dp5824
g5
(dp5825
sg44
I00
sbssg44
I87
sbsg7
(g11
S'\x02\x00\x00\x00\x00\x00\x00\x00'
p5826
tp5827
Rp5828
(i__main__
TreeNode
p5829
(dp5830
g5
(dp5831
sg44
I00
sbsg7
(g11
S'\x03\x00\x00\x00\x00\x00\x00\x00'
p5832
tp5833
Rp5834
(i__main__
TreeNode
p5835
(dp5836
g5
(dp5837
sg44
I00
sbsg7
(g11
S'\x04\x00\x00\x00\x00\x00\x00\x00'
p5838
tp5839
Rp5840
(i__main__
TreeNode
p5841
(dp5842
g5
(dp5843
sg44
I00
sbsg7
(g11
S'\x05\x00\x00\x00\x00\x00\x00\x00'
p5844
tp5845
Rp5846
(i__main__
TreeNode
p5847
(dp5848
g5
(dp5849
sg44
I00
sbsI-1
(i__main__
TreeNode
p5850
(dp5851
g5
(dp5852
sg44
I00
sbssg44
I84
sbsg7
(g11
S'\x13\x00\x00\x00\x00\x00\x00\x00'
p5853
tp5854
Rp5855
(i__main__
TreeNode
p5856
(dp5857
g5
(dp5858
sg44
I00
sbsg7
(g11
S'\x14\x00\x00\x00\x00\x00\x00\x00'
p5859
tp5860
Rp5861
(i__main__
TreeNode
p5862
(dp5863
g5
(dp5864
g7
(g11
S'\x01\x00\x00\x00\x00\x00\x00\x00'
p5865
tp5866
Rp5867
(i__main__
TreeNode
p5868
(dp5869
g5
(dp5870
sg44
I01
sbsg7
(g11
S'\x02\x00\x00\x00\x00\x00\x00\x00'
p5871
tp5872
Rp5873
(i__main__
TreeNode
p5874
(dp5875
g5
(dp5876
sg44
I00
sbsg7
(g11
S'\x03\x00\x00\x00\x00\x00\x00\x00'
p5877
tp5878
Rp5879
(i__main__
TreeNode
p5880
(dp5881
g5
(dp5882
sg44
I00
sbsg7
(g11
S'\x05\x00\x00\x00\x00\x00\x00\x00'
p5883
tp5884
Rp5885
(i__main__
TreeNode
p5886
(dp5887
g5
(dp5888
sg44
I00
sbsg7
(g11
S'\x07\x00\x00\x00\x00\x00\x00\x00'
p5889
tp5890
Rp5891
(i__main__
TreeNode
p5892
(dp5893
g5
(dp5894
sg44
I00
sbsI-1
(i__main__
TreeNode
p5895
(dp5896
g5
(dp5897
sg44
I00
sbssg44
I273
sbsg7
(g11
S'\x15\x00\x00\x00\x00\x00\x00\x00'
p5898
tp5899
Rp5900
(i__main__
TreeNode
p5901
(dp5902
g5
(dp5903
g7
(g11
S'\x03\x00\x00\x00\x00\x00\x00\x00'
p5904
tp5905
Rp5906
(i__main__
TreeNode
p5907
(dp5908
g5
(dp5909
sg44
I01
sbsg7
(g11
S'\x04\x00\x00\x00\x00\x00\x00\x00'
p5910
tp5911
Rp5912
(i__main__
TreeNode
p5913
(dp5914
g5
(dp5915
sg44
I00
sbsg7
(g11
S'\x05\x00\x00\x00\x00\x00\x00\x00'
p5916
tp5917
Rp5918
(i__main__
TreeNode
p5919
(dp5920
g5
(dp5921
sg44
I00
sbsI-1
(i__main__
TreeNode
p5922
(dp5923
g5
(dp5924
sg44
I00
sbssg44
I81
sbsI-1
(i__main__
TreeNode
p5925
(dp5926
g5
(dp5927
sg44
I00
sbssg44
I263
sbsg7
(g11
S'\x02\x00\x00\x00\x00\x00\x00\x00'
p5928
tp5929
Rp5930
(i__main__
TreeNode
p5931
(dp5932
g5
(dp5933
g7
(g11
S'\x01\x00\x00\x00\x00\x00\x00\x00'
p5934
tp5935
Rp5936
(i__main__
TreeNode
p5937
(dp5938
g5
(dp5939
g7
(g11
S'\x01\x00\x00\x00\x00\x00\x00\x00'
p5940
tp5941
Rp5942
(i__main__
TreeNode
p5943
(dp5944
g5
(dp5945
g7
(g11
S'\x01\x00\x00\x00\x00\x00\x00\x00'
p5946
tp5947
Rp5948
(i__main__
TreeNode
p5949
(dp5950
g5
(dp5951
sg44
I00
sbsg7
(g11
S'\x02\x00\x00\x00\x00\x00\x00\x00'
p5952
tp5953
Rp5954
(i__main__
TreeNode
p5955
(dp5956
g5
(dp5957
sg44
I00
sbsg7
(g11
S'\x03\x00\x00\x00\x00\x00\x00\x00'
p5958
tp5959
Rp5960
(i__main__
TreeNode
p5961
(dp5962
g5
(dp5963
sg44
I00
sbsg7
(g11
S'\x04\x00\x00\x00\x00\x00\x00\x00'
p5964
tp5965
Rp5966
(i__main__
TreeNode
p5967
(dp5968
g5
(dp5969
g7
(g11
S'\x02\x00\x00\x00\x00\x00\x00\x00'
p5970
tp5971
Rp5972
(i__main__
TreeNode
p5973
(dp5974
g5
(dp5975
sg44
I01
sbsg7
(g11
S'\x04\x00\x00\x00\x00\x00\x00\x00'
p5976
tp5977
Rp5978
(i__main__
TreeNode
p5979
(dp5980
g5
(dp5981
sg44
I00
sbsI-1
(i__main__
TreeNode
p5982
(dp5983
g5
(dp5984
sg44
I00
sbsg7
(g11
S'\x07\x00\x00\x00\x00\x00\x00\x00'
p5985
tp5986
Rp5987
(i__main__
TreeNode
p5988
(dp5989
g5
(dp5990
sg44
I00
sbssg44
I87
sbsg7
(g11
S'\x05\x00\x00\x00\x00\x00\x00\x00'
p5991
tp5992
Rp5993
(i__main__
TreeNode
p5994
(dp5995
g5
(dp5996
sg44
I01
sbsI-1
(i__main__
TreeNode
p5997
(dp5998
g5
(dp5999
sg44
I00
sbssg44
I84
sbsg7
(g11
S'\x02\x00\x00\x00\x00\x00\x00\x00'
p6000
tp6001
Rp6002
(i__main__
TreeNode
p6003
(dp6004
g5
(dp6005
g7
(g11
S'\x01\x00\x00\x00\x00\x00\x00\x00'
p6006
tp6007
Rp6008
(i__main__
TreeNode
p6009
(dp6010
g5
(dp6011
g7
(g11
S'\x02\x00\x00\x00\x00\x00\x00\x00'
p6012
tp6013
Rp6014
(i__main__
TreeNode
p6015
(dp6016
g5
(dp6017
sg44
I00
sbsg7
(g11
S'\x03\x00\x00\x00\x00\x00\x00\x00'
p6018
tp6019
Rp6020
(i__main__
TreeNode
p6021
(dp6022
g5
(dp6023
sg44
I01
sbsg7
(g11
S'\x04\x00\x00\x00\x00\x00\x00\x00'
p6024
tp6025
Rp6026
(i__main__
TreeNode
p6027
(dp6028
g5
(dp6029
sg44
I00
sbsg7
(g11
S'\x05\x00\x00\x00\x00\x00\x00\x00'
p6030
tp6031
Rp6032
(i__main__
TreeNode
p6033
(dp6034
g5
(dp6035
sg44
I00
sbsI-1
(i__main__
TreeNode
p6036
(dp6037
g5
(dp6038
sg44
I00
sbssg44
I129
sbsg7
(g11
S'\x02\x00\x00\x00\x00\x00\x00\x00'
p6039
tp6040
Rp6041
(i__main__
TreeNode
p6042
(dp6043
g5
(dp6044
sg44
I00
sbsg7
(g11
S'\x03\x00\x00\x00\x00\x00\x00\x00'
p6045
tp6046
Rp6047
(i__main__
TreeNode
p6048
(dp6049
g5
(dp6050
sg44
I00
sbsg7
(g11
S'\x04\x00\x00\x00\x00\x00\x00\x00'
p6051
tp6052
Rp6053
(i__main__
TreeNode
p6054
(dp6055
g5
(dp6056
sg44
I00
sbsg7
(g11
S'\x05\x00\x00\x00\x00\x00\x00\x00'
p6057
tp6058
Rp6059
(i__main__
TreeNode
p6060
(dp6061
g5
(dp6062
sg44
I00
sbsg7
(g11
S'\x06\x00\x00\x00\x00\x00\x00\x00'
p6063
tp6064
Rp6065
(i__main__
TreeNode
p6066
(dp6067
g5
(dp6068
sg44
I00
sbsg7
(g11
S'\x07\x00\x00\x00\x00\x00\x00\x00'
p6069
tp6070
Rp6071
(i__main__
TreeNode
p6072
(dp6073
g5
(dp6074
g7
(g11
S'\x01\x00\x00\x00\x00\x00\x00\x00'
p6075
tp6076
Rp6077
(i__main__
TreeNode
p6078
(dp6079
g5
(dp6080
sg44
I00
sbsg7
(g11
S'\x02\x00\x00\x00\x00\x00\x00\x00'
p6081
tp6082
Rp6083
(i__main__
TreeNode
p6084
(dp6085
g5
(dp6086
sg44
I00
sbsg7
(g11
S'\x03\x00\x00\x00\x00\x00\x00\x00'
p6087
tp6088
Rp6089
(i__main__
TreeNode
p6090
(dp6091
g5
(dp6092
sg44
I00
sbsI-1
(i__main__
TreeNode
p6093
(dp6094
g5
(dp6095
sg44
I00
sbssg44
I81
sbsI-1
(i__main__
TreeNode
p6096
(dp6097
g5
(dp6098
sg44
I00
sbssg44
I87
sbsg7
(g11
S'\x03\x00\x00\x00\x00\x00\x00\x00'
p6099
tp6100
Rp6101
(i__main__
TreeNode
p6102
(dp6103
g5
(dp6104
g7
(g11
S'\x01\x00\x00\x00\x00\x00\x00\x00'
p6105
tp6106
Rp6107
(i__main__
TreeNode
p6108
(dp6109
g5
(dp6110
sg44
I00
sbsg7
(g11
S'\x02\x00\x00\x00\x00\x00\x00\x00'
p6111
tp6112
Rp6113
(i__main__
TreeNode
p6114
(dp6115
g5
(dp6116
sg44
I00
sbsg7
(g11
S'\x03\x00\x00\x00\x00\x00\x00\x00'
p6117
tp6118
Rp6119
(i__main__
TreeNode
p6120
(dp6121
g5
(dp6122
g7
(g11
S'\x01\x00\x00\x00\x00\x00\x00\x00'
p6123
tp6124
Rp6125
(i__main__
TreeNode
p6126
(dp6127
g5
(dp6128
sg44
I00
sbsg7
(g11
S'\x02\x00\x00\x00\x00\x00\x00\x00'
p6129
tp6130
Rp6131
(i__main__
TreeNode
p6132
(dp6133
g5
(dp6134
sg44
I01
sbsI-1
(i__main__
TreeNode
p6135
(dp6136
g5
(dp6137
sg44
I00
sbssg44
I86
sbsg7
(g11
S'\x04\x00\x00\x00\x00\x00\x00\x00'
p6138
tp6139
Rp6140
(i__main__
TreeNode
p6141
(dp6142
g5
(dp6143
sg44
I00
sbsg7
(g11
S'\x05\x00\x00\x00\x00\x00\x00\x00'
p6144
tp6145
Rp6146
(i__main__
TreeNode
p6147
(dp6148
g5
(dp6149
sg44
I00
sbsI-1
(i__main__
TreeNode
p6150
(dp6151
g5
(dp6152
sg44
I00
sbssg44
I129
sbsg7
(g11
S'\x04\x00\x00\x00\x00\x00\x00\x00'
p6153
tp6154
Rp6155
(i__main__
TreeNode
p6156
(dp6157
g5
(dp6158
sg44
I00
sbsg7
(g11
S'\x05\x00\x00\x00\x00\x00\x00\x00'
p6159
tp6160
Rp6161
(i__main__
TreeNode
p6162
(dp6163
g5
(dp6164
g7
(g11
S'\x01\x00\x00\x00\x00\x00\x00\x00'
p6165
tp6166
Rp6167
(i__main__
TreeNode
p6168
(dp6169
g5
(dp6170
sg44
I00
sbsg7
(g11
S'\x02\x00\x00\x00\x00\x00\x00\x00'
p6171
tp6172
Rp6173
(i__main__
TreeNode
p6174
(dp6175
g5
(dp6176
sg44
I00
sbsg7
(g11
S'\x03\x00\x00\x00\x00\x00\x00\x00'
p6177
tp6178
Rp6179
(i__main__
TreeNode
p6180
(dp6181
g5
(dp6182
sg44
I00
sbsg7
(g11
S'\x04\x00\x00\x00\x00\x00\x00\x00'
p6183
tp6184
Rp6185
(i__main__
TreeNode
p6186
(dp6187
g5
(dp6188
sg44
I00
sbsg7
(g11
S'\x05\x00\x00\x00\x00\x00\x00\x00'
p6189
tp6190
Rp6191
(i__main__
TreeNode
p6192
(dp6193
g5
(dp6194
sg44
I00
sbsg7
(g11
S'\x06\x00\x00\x00\x00\x00\x00\x00'
p6195
tp6196
Rp6197
(i__main__
TreeNode
p6198
(dp6199
g5
(dp6200
sg44
I00
sbsg7
(g11
S'\x07\x00\x00\x00\x00\x00\x00\x00'
p6201
tp6202
Rp6203
(i__main__
TreeNode
p6204
(dp6205
g5
(dp6206
sg44
I00
sbsI-1
(i__main__
TreeNode
p6207
(dp6208
g5
(dp6209
sg44
I00
sbssg44
I273
sbsI-1
(i__main__
TreeNode
p6210
(dp6211
g5
(dp6212
sg44
I00
sbssg44
I82
sbsg7
(g11
S'\x02\x00\x00\x00\x00\x00\x00\x00'
p6213
tp6214
Rp6215
(i__main__
TreeNode
p6216
(dp6217
g5
(dp6218
g7
(g11
S'\x01\x00\x00\x00\x00\x00\x00\x00'
p6219
tp6220
Rp6221
(i__main__
TreeNode
p6222
(dp6223
g5
(dp6224
g7
(g11
S'\x01\x00\x00\x00\x00\x00\x00\x00'
p6225
tp6226
Rp6227
(i__main__
TreeNode
p6228
(dp6229
g5
(dp6230
sg44
I01
sbsg7
(g11
S'\x02\x00\x00\x00\x00\x00\x00\x00'
p6231
tp6232
Rp6233
(i__main__
TreeNode
p6234
(dp6235
g5
(dp6236
sg44
I01
sbsg7
(g11
S'\x03\x00\x00\x00\x00\x00\x00\x00'
p6237
tp6238
Rp6239
(i__main__
TreeNode
p6240
(dp6241
g5
(dp6242
sg44
I01
sbsg7
(g11
S'\x04\x00\x00\x00\x00\x00\x00\x00'
p6243
tp6244
Rp6245
(i__main__
TreeNode
p6246
(dp6247
g5
(dp6248
g7
(g11
S'\x01\x00\x00\x00\x00\x00\x00\x00'
p6249
tp6250
Rp6251
(i__main__
TreeNode
p6252
(dp6253
g5
(dp6254
sg44
I01
sbsg7
(g11
S'\x02\x00\x00\x00\x00\x00\x00\x00'
p6255
tp6256
Rp6257
(i__main__
TreeNode
p6258
(dp6259
g5
(dp6260
sg44
I00
sbsI-1
(i__main__
TreeNode
p6261
(dp6262
g5
(dp6263
sg44
I00
sbssg44
I81
sbsg7
(g11
S'\x05\x00\x00\x00\x00\x00\x00\x00'
p6264
tp6265
Rp6266
(i__main__
TreeNode
p6267
(dp6268
g5
(dp6269
sg44
I00
sbsg7
(g11
S'\x06\x00\x00\x00\x00\x00\x00\x00'
p6270
tp6271
Rp6272
(i__main__
TreeNode
p6273
(dp6274
g5
(dp6275
sg44
I01
sbsg7
(g11
S'\x07\x00\x00\x00\x00\x00\x00\x00'
p6276
tp6277
Rp6278
(i__main__
TreeNode
p6279
(dp6280
g5
(dp6281
g7
(g11
S'\x01\x00\x00\x00\x00\x00\x00\x00'
p6282
tp6283
Rp6284
(i__main__
TreeNode
p6285
(dp6286
g5
(dp6287
sg44
I00
sbsg7
(g11
S'\x02\x00\x00\x00\x00\x00\x00\x00'
p6288
tp6289
Rp6290
(i__main__
TreeNode
p6291
(dp6292
g5
(dp6293
sg44
I01
sbsI-1
(i__main__
TreeNode
p6294
(dp6295
g5
(dp6296
sg44
I00
sbssg44
I174
sbsI-1
(i__main__
TreeNode
p6297
(dp6298
g5
(dp6299
sg44
I01
sbssg44
I87
sbsg7
(g11
S'\x02\x00\x00\x00\x00\x00\x00\x00'
p6300
tp6301
Rp6302
(i__main__
TreeNode
p6303
(dp6304
g5
(dp6305
g7
(g11
S'\x01\x00\x00\x00\x00\x00\x00\x00'
p6306
tp6307
Rp6308
(i__main__
TreeNode
p6309
(dp6310
g5
(dp6311
sg44
I00
sbsg7
(g11
S'\x03\x00\x00\x00\x00\x00\x00\x00'
p6312
tp6313
Rp6314
(i__main__
TreeNode
p6315
(dp6316
g5
(dp6317
sg44
I01
sbsI-1
(i__main__
TreeNode
p6318
(dp6319
g5
(dp6320
sg44
I00
sbssg44
I173
sbsg7
(g11
S'\x03\x00\x00\x00\x00\x00\x00\x00'
p6321
tp6322
Rp6323
(i__main__
TreeNode
p6324
(dp6325
g5
(dp6326
g7
(g11
S'\x01\x00\x00\x00\x00\x00\x00\x00'
p6327
tp6328
Rp6329
(i__main__
TreeNode
p6330
(dp6331
g5
(dp6332
sg44
I00
sbsg7
(g11
S'\x02\x00\x00\x00\x00\x00\x00\x00'
p6333
tp6334
Rp6335
(i__main__
TreeNode
p6336
(dp6337
g5
(dp6338
sg44
I00
sbsg7
(g11
S'\x03\x00\x00\x00\x00\x00\x00\x00'
p6339
tp6340
Rp6341
(i__main__
TreeNode
p6342
(dp6343
g5
(dp6344
sg44
I01
sbsg7
(g11
S'\x04\x00\x00\x00\x00\x00\x00\x00'
p6345
tp6346
Rp6347
(i__main__
TreeNode
p6348
(dp6349
g5
(dp6350
sg44
I00
sbsg7
(g11
S'\x05\x00\x00\x00\x00\x00\x00\x00'
p6351
tp6352
Rp6353
(i__main__
TreeNode
p6354
(dp6355
g5
(dp6356
sg44
I00
sbsI-1
(i__main__
TreeNode
p6357
(dp6358
g5
(dp6359
sg44
I00
sbssg44
I81
sbsg7
(g11
S'\x04\x00\x00\x00\x00\x00\x00\x00'
p6360
tp6361
Rp6362
(i__main__
TreeNode
p6363
(dp6364
g5
(dp6365
sg44
I00
sbsg7
(g11
S'\x05\x00\x00\x00\x00\x00\x00\x00'
p6366
tp6367
Rp6368
(i__main__
TreeNode
p6369
(dp6370
g5
(dp6371
g7
(g11
S'\x01\x00\x00\x00\x00\x00\x00\x00'
p6372
tp6373
Rp6374
(i__main__
TreeNode
p6375
(dp6376
g5
(dp6377
sg44
I00
sbsg7
(g11
S'\x03\x00\x00\x00\x00\x00\x00\x00'
p6378
tp6379
Rp6380
(i__main__
TreeNode
p6381
(dp6382
g5
(dp6383
sg44
I00
sbsg7
(g11
S'\x04\x00\x00\x00\x00\x00\x00\x00'
p6384
tp6385
Rp6386
(i__main__
TreeNode
p6387
(dp6388
g5
(dp6389
sg44
I00
sbsg7
(g11
S'\x05\x00\x00\x00\x00\x00\x00\x00'
p6390
tp6391
Rp6392
(i__main__
TreeNode
p6393
(dp6394
g5
(dp6395
sg44
I00
sbsg7
(g11
S'\x06\x00\x00\x00\x00\x00\x00\x00'
p6396
tp6397
Rp6398
(i__main__
TreeNode
p6399
(dp6400
g5
(dp6401
sg44
I01
sbsg7
(g11
S'\x07\x00\x00\x00\x00\x00\x00\x00'
p6402
tp6403
Rp6404
(i__main__
TreeNode
p6405
(dp6406
g5
(dp6407
sg44
I00
sbsI-1
(i__main__
TreeNode
p6408
(dp6409
g5
(dp6410
sg44
I00
sbssg44
I87
sbsI-1
(i__main__
TreeNode
p6411
(dp6412
g5
(dp6413
sg44
I00
sbssg44
I85
sbsg7
(g11
S'\x03\x00\x00\x00\x00\x00\x00\x00'
p6414
tp6415
Rp6416
(i__main__
TreeNode
p6417
(dp6418
g5
(dp6419
g7
(g11
S'\x01\x00\x00\x00\x00\x00\x00\x00'
p6420
tp6421
Rp6422
(i__main__
TreeNode
p6423
(dp6424
g5
(dp6425
sg44
I00
sbsg7
(g11
S'\x02\x00\x00\x00\x00\x00\x00\x00'
p6426
tp6427
Rp6428
(i__main__
TreeNode
p6429
(dp6430
g5
(dp6431
sg44
I00
sbsg7
(g11
S'\x03\x00\x00\x00\x00\x00\x00\x00'
p6432
tp6433
Rp6434
(i__main__
TreeNode
p6435
(dp6436
g5
(dp6437
sg44
I00
sbsg7
(g11
S'\x04\x00\x00\x00\x00\x00\x00\x00'
p6438
tp6439
Rp6440
(i__main__
TreeNode
p6441
(dp6442
g5
(dp6443
sg44
I00
sbsg7
(g11
S'\x05\x00\x00\x00\x00\x00\x00\x00'
p6444
tp6445
Rp6446
(i__main__
TreeNode
p6447
(dp6448
g5
(dp6449
sg44
I00
sbsg7
(g11
S'\x06\x00\x00\x00\x00\x00\x00\x00'
p6450
tp6451
Rp6452
(i__main__
TreeNode
p6453
(dp6454
g5
(dp6455
g7
(g11
S'\x02\x00\x00\x00\x00\x00\x00\x00'
p6456
tp6457
Rp6458
(i__main__
TreeNode
p6459
(dp6460
g5
(dp6461
sg44
I01
sbsg7
(g11
S'\x03\x00\x00\x00\x00\x00\x00\x00'
p6462
tp6463
Rp6464
(i__main__
TreeNode
p6465
(dp6466
g5
(dp6467
sg44
I00
sbsg7
(g11
S'\x04\x00\x00\x00\x00\x00\x00\x00'
p6468
tp6469
Rp6470
(i__main__
TreeNode
p6471
(dp6472
g5
(dp6473
sg44
I00
sbsg7
(g11
S'\x05\x00\x00\x00\x00\x00\x00\x00'
p6474
tp6475
Rp6476
(i__main__
TreeNode
p6477
(dp6478
g5
(dp6479
sg44
I00
sbsI-1
(i__main__
TreeNode
p6480
(dp6481
g5
(dp6482
sg44
I00
sbssg44
I129
sbsg7
(g11
S'\x07\x00\x00\x00\x00\x00\x00\x00'
p6483
tp6484
Rp6485
(i__main__
TreeNode
p6486
(dp6487
g5
(dp6488
sg44
I00
sbsI-1
(i__main__
TreeNode
p6489
(dp6490
g5
(dp6491
sg44
I00
sbssg44
I87
sbsg7
(g11
S'\x04\x00\x00\x00\x00\x00\x00\x00'
p6492
tp6493
Rp6494
(i__main__
TreeNode
p6495
(dp6496
g5
(dp6497
sg44
I00
sbsg7
(g11
S'\x05\x00\x00\x00\x00\x00\x00\x00'
p6498
tp6499
Rp6500
(i__main__
TreeNode
p6501
(dp6502
g5
(dp6503
sg44
I00
sbsg7
(g11
S'\x06\x00\x00\x00\x00\x00\x00\x00'
p6504
tp6505
Rp6506
(i__main__
TreeNode
p6507
(dp6508
g5
(dp6509
g7
(g11
S'\x01\x00\x00\x00\x00\x00\x00\x00'
p6510
tp6511
Rp6512
(i__main__
TreeNode
p6513
(dp6514
g5
(dp6515
sg44
I00
sbsg7
(g11
S'\x02\x00\x00\x00\x00\x00\x00\x00'
p6516
tp6517
Rp6518
(i__main__
TreeNode
p6519
(dp6520
g5
(dp6521
sg44
I00
sbsg7
(g11
S'\x03\x00\x00\x00\x00\x00\x00\x00'
p6522
tp6523
Rp6524
(i__main__
TreeNode
p6525
(dp6526
g5
(dp6527
sg44
I00
sbsg7
(g11
S'\x04\x00\x00\x00\x00\x00\x00\x00'
p6528
tp6529
Rp6530
(i__main__
TreeNode
p6531
(dp6532
g5
(dp6533
sg44
I00
sbsg7
(g11
S'\x05\x00\x00\x00\x00\x00\x00\x00'
p6534
tp6535
Rp6536
(i__main__
TreeNode
p6537
(dp6538
g5
(dp6539
sg44
I00
sbsg7
(g11
S'\x06\x00\x00\x00\x00\x00\x00\x00'
p6540
tp6541
Rp6542
(i__main__
TreeNode
p6543
(dp6544
g5
(dp6545
sg44
I00
sbsg7
(g11
S'\x07\x00\x00\x00\x00\x00\x00\x00'
p6546
tp6547
Rp6548
(i__main__
TreeNode
p6549
(dp6550
g5
(dp6551
sg44
I00
sbsI-1
(i__main__
TreeNode
p6552
(dp6553
g5
(dp6554
sg44
I00
sbssg44
I273
sbsI-1
(i__main__
TreeNode
p6555
(dp6556
g5
(dp6557
sg44
I00
sbssg44
I272
sbsg7
(g11
S'\x03\x00\x00\x00\x00\x00\x00\x00'
p6558
tp6559
Rp6560
(i__main__
TreeNode
p6561
(dp6562
g5
(dp6563
g7
(g11
S'\x01\x00\x00\x00\x00\x00\x00\x00'
p6564
tp6565
Rp6566
(i__main__
TreeNode
p6567
(dp6568
g5
(dp6569
g7
(g11
S'\x01\x00\x00\x00\x00\x00\x00\x00'
p6570
tp6571
Rp6572
(i__main__
TreeNode
p6573
(dp6574
g5
(dp6575
g7
(g11
S'\x01\x00\x00\x00\x00\x00\x00\x00'
p6576
tp6577
Rp6578
(i__main__
TreeNode
p6579
(dp6580
g5
(dp6581
g7
(g11
S'\x01\x00\x00\x00\x00\x00\x00\x00'
p6582
tp6583
Rp6584
(i__main__
TreeNode
p6585
(dp6586
g5
(dp6587
g7
(g11
S'\x01\x00\x00\x00\x00\x00\x00\x00'
p6588
tp6589
Rp6590
(i__main__
TreeNode
p6591
(dp6592
g5
(dp6593
sg44
I00
sbsg7
(g11
S'\x02\x00\x00\x00\x00\x00\x00\x00'
p6594
tp6595
Rp6596
(i__main__
TreeNode
p6597
(dp6598
g5
(dp6599
sg44
I00
sbsg7
(g11
S'\x03\x00\x00\x00\x00\x00\x00\x00'
p6600
tp6601
Rp6602
(i__main__
TreeNode
p6603
(dp6604
g5
(dp6605
sg44
I00
sbsg7
(g11
S'\x04\x00\x00\x00\x00\x00\x00\x00'
p6606
tp6607
Rp6608
(i__main__
TreeNode
p6609
(dp6610
g5
(dp6611
sg44
I00
sbsg7
(g11
S'\x05\x00\x00\x00\x00\x00\x00\x00'
p6612
tp6613
Rp6614
(i__main__
TreeNode
p6615
(dp6616
g5
(dp6617
sg44
I00
sbsI-1
(i__main__
TreeNode
p6618
(dp6619
g5
(dp6620
sg44
I00
sbssg44
I82
sbsg7
(g11
S'\x02\x00\x00\x00\x00\x00\x00\x00'
p6621
tp6622
Rp6623
(i__main__
TreeNode
p6624
(dp6625
g5
(dp6626
sg44
I00
sbsg7
(g11
S'\x03\x00\x00\x00\x00\x00\x00\x00'
p6627
tp6628
Rp6629
(i__main__
TreeNode
p6630
(dp6631
g5
(dp6632
g7
(g11
S'\x01\x00\x00\x00\x00\x00\x00\x00'
p6633
tp6634
Rp6635
(i__main__
TreeNode
p6636
(dp6637
g5
(dp6638
sg44
I00
sbsg7
(g11
S'\x02\x00\x00\x00\x00\x00\x00\x00'
p6639
tp6640
Rp6641
(i__main__
TreeNode
p6642
(dp6643
g5
(dp6644
g7
(g11
S'\x01\x00\x00\x00\x00\x00\x00\x00'
p6645
tp6646
Rp6647
(i__main__
TreeNode
p6648
(dp6649
g5
(dp6650
g7
(g11
S'\x01\x00\x00\x00\x00\x00\x00\x00'
p6651
tp6652
Rp6653
(i__main__
TreeNode
p6654
(dp6655
g5
(dp6656
sg44
I01
sbsg7
(g11
S'\x02\x00\x00\x00\x00\x00\x00\x00'
p6657
tp6658
Rp6659
(i__main__
TreeNode
p6660
(dp6661
g5
(dp6662
sg44
I00
sbsg7
(g11
S'\x03\x00\x00\x00\x00\x00\x00\x00'
p6663
tp6664
Rp6665
(i__main__
TreeNode
p6666
(dp6667
g5
(dp6668
sg44
I00
sbsg7
(g11
S'\x04\x00\x00\x00\x00\x00\x00\x00'
p6669
tp6670
Rp6671
(i__main__
TreeNode
p6672
(dp6673
g5
(dp6674
sg44
I00
sbsg7
(g11
S'\x05\x00\x00\x00\x00\x00\x00\x00'
p6675
tp6676
Rp6677
(i__main__
TreeNode
p6678
(dp6679
g5
(dp6680
sg44
I00
sbsI-1
(i__main__
TreeNode
p6681
(dp6682
g5
(dp6683
sg44
I00
sbssg44
I129
sbsg7
(g11
S'\x02\x00\x00\x00\x00\x00\x00\x00'
p6684
tp6685
Rp6686
(i__main__
TreeNode
p6687
(dp6688
g5
(dp6689
sg44
I00
sbsg7
(g11
S'\x03\x00\x00\x00\x00\x00\x00\x00'
p6690
tp6691
Rp6692
(i__main__
TreeNode
p6693
(dp6694
g5
(dp6695
sg44
I01
sbsg7
(g11
S'\x04\x00\x00\x00\x00\x00\x00\x00'
p6696
tp6697
Rp6698
(i__main__
TreeNode
p6699
(dp6700
g5
(dp6701
sg44
I00
sbsg7
(g11
S'\x05\x00\x00\x00\x00\x00\x00\x00'
p6702
tp6703
Rp6704
(i__main__
TreeNode
p6705
(dp6706
g5
(dp6707
sg44
I00
sbsg7
(g11
S'\x06\x00\x00\x00\x00\x00\x00\x00'
p6708
tp6709
Rp6710
(i__main__
TreeNode
p6711
(dp6712
g5
(dp6713
sg44
I00
sbsg7
(g11
S'\x07\x00\x00\x00\x00\x00\x00\x00'
p6714
tp6715
Rp6716
(i__main__
TreeNode
p6717
(dp6718
g5
(dp6719
sg44
I00
sbsI-1
(i__main__
TreeNode
p6720
(dp6721
g5
(dp6722
sg44
I00
sbssg44
I273
sbsg7
(g11
S'\x03\x00\x00\x00\x00\x00\x00\x00'
p6723
tp6724
Rp6725
(i__main__
TreeNode
p6726
(dp6727
g5
(dp6728
g7
(g11
S'\x01\x00\x00\x00\x00\x00\x00\x00'
p6729
tp6730
Rp6731
(i__main__
TreeNode
p6732
(dp6733
g5
(dp6734
sg44
I00
sbsg7
(g11
S'\x02\x00\x00\x00\x00\x00\x00\x00'
p6735
tp6736
Rp6737
(i__main__
TreeNode
p6738
(dp6739
g5
(dp6740
sg44
I01
sbsg7
(g11
S'\x03\x00\x00\x00\x00\x00\x00\x00'
p6741
tp6742
Rp6743
(i__main__
TreeNode
p6744
(dp6745
g5
(dp6746
sg44
I00
sbsg7
(g11
S'\x04\x00\x00\x00\x00\x00\x00\x00'
p6747
tp6748
Rp6749
(i__main__
TreeNode
p6750
(dp6751
g5
(dp6752
sg44
I00
sbsg7
(g11
S'\x05\x00\x00\x00\x00\x00\x00\x00'
p6753
tp6754
Rp6755
(i__main__
TreeNode
p6756
(dp6757
g5
(dp6758
sg44
I00
sbsI-1
(i__main__
TreeNode
p6759
(dp6760
g5
(dp6761
sg44
I00
sbssg44
I127
sbsg7
(g11
S'\x04\x00\x00\x00\x00\x00\x00\x00'
p6762
tp6763
Rp6764
(i__main__
TreeNode
p6765
(dp6766
g5
(dp6767
g7
(g11
S'\x01\x00\x00\x00\x00\x00\x00\x00'
p6768
tp6769
Rp6770
(i__main__
TreeNode
p6771
(dp6772
g5
(dp6773
sg44
I00
sbsg7
(g11
S'\x02\x00\x00\x00\x00\x00\x00\x00'
p6774
tp6775
Rp6776
(i__main__
TreeNode
p6777
(dp6778
g5
(dp6779
sg44
I01
sbsg7
(g11
S'\x03\x00\x00\x00\x00\x00\x00\x00'
p6780
tp6781
Rp6782
(i__main__
TreeNode
p6783
(dp6784
g5
(dp6785
sg44
I00
sbsg7
(g11
S'\x04\x00\x00\x00\x00\x00\x00\x00'
p6786
tp6787
Rp6788
(i__main__
TreeNode
p6789
(dp6790
g5
(dp6791
sg44
I00
sbsg7
(g11
S'\x05\x00\x00\x00\x00\x00\x00\x00'
p6792
tp6793
Rp6794
(i__main__
TreeNode
p6795
(dp6796
g5
(dp6797
sg44
I00
sbsI-1
(i__main__
TreeNode
p6798
(dp6799
g5
(dp6800
sg44
I00
sbssg44
I128
sbsg7
(g11
S'\x05\x00\x00\x00\x00\x00\x00\x00'
p6801
tp6802
Rp6803
(i__main__
TreeNode
p6804
(dp6805
g5
(dp6806
sg44
I00
sbsI-1
(i__main__
TreeNode
p6807
(dp6808
g5
(dp6809
sg44
I00
sbssg44
I81
sbsg7
(g11
S'\x04\x00\x00\x00\x00\x00\x00\x00'
p6810
tp6811
Rp6812
(i__main__
TreeNode
p6813
(dp6814
g5
(dp6815
g7
(g11
S'\x01\x00\x00\x00\x00\x00\x00\x00'
p6816
tp6817
Rp6818
(i__main__
TreeNode
p6819
(dp6820
g5
(dp6821
sg44
I00
sbsg7
(g11
S'\x02\x00\x00\x00\x00\x00\x00\x00'
p6822
tp6823
Rp6824
(i__main__
TreeNode
p6825
(dp6826
g5
(dp6827
sg44
I00
sbsg7
(g11
S'\x03\x00\x00\x00\x00\x00\x00\x00'
p6828
tp6829
Rp6830
(i__main__
TreeNode
p6831
(dp6832
g5
(dp6833
sg44
I00
sbsg7
(g11
S'\x04\x00\x00\x00\x00\x00\x00\x00'
p6834
tp6835
Rp6836
(i__main__
TreeNode
p6837
(dp6838
g5
(dp6839
sg44
I00
sbsg7
(g11
S'\x05\x00\x00\x00\x00\x00\x00\x00'
p6840
tp6841
Rp6842
(i__main__
TreeNode
p6843
(dp6844
g5
(dp6845
sg44
I00
sbsg7
(g11
S'\x06\x00\x00\x00\x00\x00\x00\x00'
p6846
tp6847
Rp6848
(i__main__
TreeNode
p6849
(dp6850
g5
(dp6851
sg44
I00
sbsg7
(g11
S'\x07\x00\x00\x00\x00\x00\x00\x00'
p6852
tp6853
Rp6854
(i__main__
TreeNode
p6855
(dp6856
g5
(dp6857
g7
(g11
S'\x01\x00\x00\x00\x00\x00\x00\x00'
p6858
tp6859
Rp6860
(i__main__
TreeNode
p6861
(dp6862
g5
(dp6863
sg44
I00
sbsg7
(g11
S'\x02\x00\x00\x00\x00\x00\x00\x00'
p6864
tp6865
Rp6866
(i__main__
TreeNode
p6867
(dp6868
g5
(dp6869
sg44
I00
sbsg7
(g11
S'\x03\x00\x00\x00\x00\x00\x00\x00'
p6870
tp6871
Rp6872
(i__main__
TreeNode
p6873
(dp6874
g5
(dp6875
sg44
I00
sbsg7
(g11
S'\x04\x00\x00\x00\x00\x00\x00\x00'
p6876
tp6877
Rp6878
(i__main__
TreeNode
p6879
(dp6880
g5
(dp6881
sg44
I00
sbsg7
(g11
S'\x05\x00\x00\x00\x00\x00\x00\x00'
p6882
tp6883
Rp6884
(i__main__
TreeNode
p6885
(dp6886
g5
(dp6887
sg44
I00
sbsI-1
(i__main__
TreeNode
p6888
(dp6889
g5
(dp6890
sg44
I00
sbssg44
I129
sbsI-1
(i__main__
TreeNode
p6891
(dp6892
g5
(dp6893
sg44
I00
sbssg44
I273
sbsg7
(g11
S'\x05\x00\x00\x00\x00\x00\x00\x00'
p6894
tp6895
Rp6896
(i__main__
TreeNode
p6897
(dp6898
g5
(dp6899
g7
(g11
S'\x01\x00\x00\x00\x00\x00\x00\x00'
p6900
tp6901
Rp6902
(i__main__
TreeNode
p6903
(dp6904
g5
(dp6905
sg44
I00
sbsg7
(g11
S'\x02\x00\x00\x00\x00\x00\x00\x00'
p6906
tp6907
Rp6908
(i__main__
TreeNode
p6909
(dp6910
g5
(dp6911
sg44
I00
sbsg7
(g11
S'\x03\x00\x00\x00\x00\x00\x00\x00'
p6912
tp6913
Rp6914
(i__main__
TreeNode
p6915
(dp6916
g5
(dp6917
g7
(g11
S'\x01\x00\x00\x00\x00\x00\x00\x00'
p6918
tp6919
Rp6920
(i__main__
TreeNode
p6921
(dp6922
g5
(dp6923
sg44
I00
sbsg7
(g11
S'\x02\x00\x00\x00\x00\x00\x00\x00'
p6924
tp6925
Rp6926
(i__main__
TreeNode
p6927
(dp6928
g5
(dp6929
sg44
I00
sbsg7
(g11
S'\x03\x00\x00\x00\x00\x00\x00\x00'
p6930
tp6931
Rp6932
(i__main__
TreeNode
p6933
(dp6934
g5
(dp6935
sg44
I00
sbsg7
(g11
S'\x04\x00\x00\x00\x00\x00\x00\x00'
p6936
tp6937
Rp6938
(i__main__
TreeNode
p6939
(dp6940
g5
(dp6941
sg44
I00
sbsg7
(g11
S'\x05\x00\x00\x00\x00\x00\x00\x00'
p6942
tp6943
Rp6944
(i__main__
TreeNode
p6945
(dp6946
g5
(dp6947
sg44
I00
sbsI-1
(i__main__
TreeNode
p6948
(dp6949
g5
(dp6950
sg44
I00
sbssg44
I88
sbsg7
(g11
S'\x04\x00\x00\x00\x00\x00\x00\x00'
p6951
tp6952
Rp6953
(i__main__
TreeNode
p6954
(dp6955
g5
(dp6956
sg44
I00
sbsg7
(g11
S'\x05\x00\x00\x00\x00\x00\x00\x00'
p6957
tp6958
Rp6959
(i__main__
TreeNode
p6960
(dp6961
g5
(dp6962
sg44
I00
sbsI-1
(i__main__
TreeNode
p6963
(dp6964
g5
(dp6965
sg44
I00
sbssg44
I82
sbsg7
(g11
S'\x06\x00\x00\x00\x00\x00\x00\x00'
p6966
tp6967
Rp6968
(i__main__
TreeNode
p6969
(dp6970
g5
(dp6971
sg44
I00
sbsg7
(g11
S'\x07\x00\x00\x00\x00\x00\x00\x00'
p6972
tp6973
Rp6974
(i__main__
TreeNode
p6975
(dp6976
g5
(dp6977
sg44
I00
sbsI-1
(i__main__
TreeNode
p6978
(dp6979
g5
(dp6980
sg44
I00
sbssg44
I87
sbsg7
(g11
S'\x02\x00\x00\x00\x00\x00\x00\x00'
p6981
tp6982
Rp6983
(i__main__
TreeNode
p6984
(dp6985
g5
(dp6986
sg44
I01
sbsg7
(g11
S'\x03\x00\x00\x00\x00\x00\x00\x00'
p6987
tp6988
Rp6989
(i__main__
TreeNode
p6990
(dp6991
g5
(dp6992
sg44
I01
sbsI-1
(i__main__
TreeNode
p6993
(dp6994
g5
(dp6995
sg44
I00
sbssg44
I11
sbsg7
(g11
S'\x02\x00\x00\x00\x00\x00\x00\x00'
p6996
tp6997
Rp6998
(i__main__
TreeNode
p6999
(dp7000
g5
(dp7001
g7
(g11
S'\x01\x00\x00\x00\x00\x00\x00\x00'
p7002
tp7003
Rp7004
(i__main__
TreeNode
p7005
(dp7006
g5
(dp7007
sg44
I00
sbsg7
(g11
S'\x02\x00\x00\x00\x00\x00\x00\x00'
p7008
tp7009
Rp7010
(i__main__
TreeNode
p7011
(dp7012
g5
(dp7013
g7
(g11
S'\x01\x00\x00\x00\x00\x00\x00\x00'
p7014
tp7015
Rp7016
(i__main__
TreeNode
p7017
(dp7018
g5
(dp7019
sg44
I00
sbsg7
(g11
S'\x02\x00\x00\x00\x00\x00\x00\x00'
p7020
tp7021
Rp7022
(i__main__
TreeNode
p7023
(dp7024
g5
(dp7025
sg44
I00
sbsg7
(g11
S'\x03\x00\x00\x00\x00\x00\x00\x00'
p7026
tp7027
Rp7028
(i__main__
TreeNode
p7029
(dp7030
g5
(dp7031
sg44
I00
sbsg7
(g11
S'\x04\x00\x00\x00\x00\x00\x00\x00'
p7032
tp7033
Rp7034
(i__main__
TreeNode
p7035
(dp7036
g5
(dp7037
sg44
I00
sbsg7
(g11
S'\x05\x00\x00\x00\x00\x00\x00\x00'
p7038
tp7039
Rp7040
(i__main__
TreeNode
p7041
(dp7042
g5
(dp7043
sg44
I00
sbsI-1
(i__main__
TreeNode
p7044
(dp7045
g5
(dp7046
sg44
I00
sbssg44
I81
sbsg7
(g11
S'\x03\x00\x00\x00\x00\x00\x00\x00'
p7047
tp7048
Rp7049
(i__main__
TreeNode
p7050
(dp7051
g5
(dp7052
sg44
I00
sbsg7
(g11
S'\x04\x00\x00\x00\x00\x00\x00\x00'
p7053
tp7054
Rp7055
(i__main__
TreeNode
p7056
(dp7057
g5
(dp7058
g7
(g11
S'\x01\x00\x00\x00\x00\x00\x00\x00'
p7059
tp7060
Rp7061
(i__main__
TreeNode
p7062
(dp7063
g5
(dp7064
sg44
I00
sbsg7
(g11
S'\x02\x00\x00\x00\x00\x00\x00\x00'
p7065
tp7066
Rp7067
(i__main__
TreeNode
p7068
(dp7069
g5
(dp7070
sg44
I00
sbsg7
(g11
S'\x03\x00\x00\x00\x00\x00\x00\x00'
p7071
tp7072
Rp7073
(i__main__
TreeNode
p7074
(dp7075
g5
(dp7076
sg44
I00
sbsg7
(g11
S'\x04\x00\x00\x00\x00\x00\x00\x00'
p7077
tp7078
Rp7079
(i__main__
TreeNode
p7080
(dp7081
g5
(dp7082
sg44
I00
sbsg7
(g11
S'\x05\x00\x00\x00\x00\x00\x00\x00'
p7083
tp7084
Rp7085
(i__main__
TreeNode
p7086
(dp7087
g5
(dp7088
sg44
I00
sbsI-1
(i__main__
TreeNode
p7089
(dp7090
g5
(dp7091
sg44
I00
sbssg44
I81
sbsg7
(g11
S'\x05\x00\x00\x00\x00\x00\x00\x00'
p7092
tp7093
Rp7094
(i__main__
TreeNode
p7095
(dp7096
g5
(dp7097
sg44
I00
sbsI-1
(i__main__
TreeNode
p7098
(dp7099
g5
(dp7100
sg44
I00
sbssg44
I85
sbsg7
(g11
S'\x03\x00\x00\x00\x00\x00\x00\x00'
p7101
tp7102
Rp7103
(i__main__
TreeNode
p7104
(dp7105
g5
(dp7106
sg44
I00
sbsg7
(g11
S'\x04\x00\x00\x00\x00\x00\x00\x00'
p7107
tp7108
Rp7109
(i__main__
TreeNode
p7110
(dp7111
g5
(dp7112
sg44
I00
sbsg7
(g11
S'\x05\x00\x00\x00\x00\x00\x00\x00'
p7113
tp7114
Rp7115
(i__main__
TreeNode
p7116
(dp7117
g5
(dp7118
g7
(g11
S'\x01\x00\x00\x00\x00\x00\x00\x00'
p7119
tp7120
Rp7121
(i__main__
TreeNode
p7122
(dp7123
g5
(dp7124
sg44
I00
sbsg7
(g11
S'\x02\x00\x00\x00\x00\x00\x00\x00'
p7125
tp7126
Rp7127
(i__main__
TreeNode
p7128
(dp7129
g5
(dp7130
sg44
I00
sbsg7
(g11
S'\x03\x00\x00\x00\x00\x00\x00\x00'
p7131
tp7132
Rp7133
(i__main__
TreeNode
p7134
(dp7135
g5
(dp7136
sg44
I00
sbsg7
(g11
S'\x04\x00\x00\x00\x00\x00\x00\x00'
p7137
tp7138
Rp7139
(i__main__
TreeNode
p7140
(dp7141
g5
(dp7142
sg44
I00
sbsg7
(g11
S'\x05\x00\x00\x00\x00\x00\x00\x00'
p7143
tp7144
Rp7145
(i__main__
TreeNode
p7146
(dp7147
g5
(dp7148
sg44
I01
sbsI-1
(i__main__
TreeNode
p7149
(dp7150
g5
(dp7151
sg44
I00
sbssg44
I85
sbsI-1
(i__main__
TreeNode
p7152
(dp7153
g5
(dp7154
sg44
I00
sbssg44
I84
sbsg7
(g11
S'\x02\x00\x00\x00\x00\x00\x00\x00'
p7155
tp7156
Rp7157
(i__main__
TreeNode
p7158
(dp7159
g5
(dp7160
sg44
I00
sbsg7
(g11
S'\x03\x00\x00\x00\x00\x00\x00\x00'
p7161
tp7162
Rp7163
(i__main__
TreeNode
p7164
(dp7165
g5
(dp7166
sg44
I00
sbsg7
(g11
S'\x04\x00\x00\x00\x00\x00\x00\x00'
p7167
tp7168
Rp7169
(i__main__
TreeNode
p7170
(dp7171
g5
(dp7172
sg44
I00
sbsg7
(g11
S'\x05\x00\x00\x00\x00\x00\x00\x00'
p7173
tp7174
Rp7175
(i__main__
TreeNode
p7176
(dp7177
g5
(dp7178
sg44
I00
sbsg7
(g11
S'\x06\x00\x00\x00\x00\x00\x00\x00'
p7179
tp7180
Rp7181
(i__main__
TreeNode
p7182
(dp7183
g5
(dp7184
sg44
I00
sbsI-1
(i__main__
TreeNode
p7185
(dp7186
g5
(dp7187
sg44
I00
sbssg44
I272
sbsg7
(g11
S'\x04\x00\x00\x00\x00\x00\x00\x00'
p7188
tp7189
Rp7190
(i__main__
TreeNode
p7191
(dp7192
g5
(dp7193
g7
(g11
S'\x01\x00\x00\x00\x00\x00\x00\x00'
p7194
tp7195
Rp7196
(i__main__
TreeNode
p7197
(dp7198
g5
(dp7199
g7
(g11
S'\x01\x00\x00\x00\x00\x00\x00\x00'
p7200
tp7201
Rp7202
(i__main__
TreeNode
p7203
(dp7204
g5
(dp7205
g7
(g11
S'\x01\x00\x00\x00\x00\x00\x00\x00'
p7206
tp7207
Rp7208
(i__main__
TreeNode
p7209
(dp7210
g5
(dp7211
sg44
I00
sbsg7
(g11
S'\x02\x00\x00\x00\x00\x00\x00\x00'
p7212
tp7213
Rp7214
(i__main__
TreeNode
p7215
(dp7216
g5
(dp7217
sg44
I00
sbsg7
(g11
S'\x03\x00\x00\x00\x00\x00\x00\x00'
p7218
tp7219
Rp7220
(i__main__
TreeNode
p7221
(dp7222
g5
(dp7223
g7
(g11
S'\x01\x00\x00\x00\x00\x00\x00\x00'
p7224
tp7225
Rp7226
(i__main__
TreeNode
p7227
(dp7228
g5
(dp7229
sg44
I01
sbsg7
(g11
S'\x02\x00\x00\x00\x00\x00\x00\x00'
p7230
tp7231
Rp7232
(i__main__
TreeNode
p7233
(dp7234
g5
(dp7235
sg44
I00
sbsg7
(g11
S'\x03\x00\x00\x00\x00\x00\x00\x00'
p7236
tp7237
Rp7238
(i__main__
TreeNode
p7239
(dp7240
g5
(dp7241
sg44
I00
sbsg7
(g11
S'\x04\x00\x00\x00\x00\x00\x00\x00'
p7242
tp7243
Rp7244
(i__main__
TreeNode
p7245
(dp7246
g5
(dp7247
sg44
I00
sbsg7
(g11
S'\x05\x00\x00\x00\x00\x00\x00\x00'
p7248
tp7249
Rp7250
(i__main__
TreeNode
p7251
(dp7252
g5
(dp7253
sg44
I00
sbsI-1
(i__main__
TreeNode
p7254
(dp7255
g5
(dp7256
sg44
I00
sbssg44
I128
sbsg7
(g11
S'\x04\x00\x00\x00\x00\x00\x00\x00'
p7257
tp7258
Rp7259
(i__main__
TreeNode
p7260
(dp7261
g5
(dp7262
g7
(g11
S'\x01\x00\x00\x00\x00\x00\x00\x00'
p7263
tp7264
Rp7265
(i__main__
TreeNode
p7266
(dp7267
g5
(dp7268
sg44
I00
sbsg7
(g11
S'\x02\x00\x00\x00\x00\x00\x00\x00'
p7269
tp7270
Rp7271
(i__main__
TreeNode
p7272
(dp7273
g5
(dp7274
g7
(g11
S'\x02\x00\x00\x00\x00\x00\x00\x00'
p7275
tp7276
Rp7277
(i__main__
TreeNode
p7278
(dp7279
g5
(dp7280
g7
(g11
S'\x02\x00\x00\x00\x00\x00\x00\x00'
p7281
tp7282
Rp7283
(i__main__
TreeNode
p7284
(dp7285
g5
(dp7286
sg44
I01
sbsg7
(g11
S'\x03\x00\x00\x00\x00\x00\x00\x00'
p7287
tp7288
Rp7289
(i__main__
TreeNode
p7290
(dp7291
g5
(dp7292
sg44
I00
sbsI-1
(i__main__
TreeNode
p7293
(dp7294
g5
(dp7295
sg44
I01
sbssg44
I81
sbsg7
(g11
S'\x03\x00\x00\x00\x00\x00\x00\x00'
p7296
tp7297
Rp7298
(i__main__
TreeNode
p7299
(dp7300
g5
(dp7301
g7
(g11
S'\x02\x00\x00\x00\x00\x00\x00\x00'
p7302
tp7303
Rp7304
(i__main__
TreeNode
p7305
(dp7306
g5
(dp7307
sg44
I00
sbsg7
(g11
S'\x04\x00\x00\x00\x00\x00\x00\x00'
p7308
tp7309
Rp7310
(i__main__
TreeNode
p7311
(dp7312
g5
(dp7313
sg44
I00
sbsg7
(g11
S'\x05\x00\x00\x00\x00\x00\x00\x00'
p7314
tp7315
Rp7316
(i__main__
TreeNode
p7317
(dp7318
g5
(dp7319
sg44
I01
sbsg7
(g11
S'\x06\x00\x00\x00\x00\x00\x00\x00'
p7320
tp7321
Rp7322
(i__main__
TreeNode
p7323
(dp7324
g5
(dp7325
sg44
I00
sbsg7
(g11
S'\x07\x00\x00\x00\x00\x00\x00\x00'
p7326
tp7327
Rp7328
(i__main__
TreeNode
p7329
(dp7330
g5
(dp7331
sg44
I00
sbsI-1
(i__main__
TreeNode
p7332
(dp7333
g5
(dp7334
sg44
I00
sbssg44
I87
sbsg7
(g11
S'\x04\x00\x00\x00\x00\x00\x00\x00'
p7335
tp7336
Rp7337
(i__main__
TreeNode
p7338
(dp7339
g5
(dp7340
sg44
I00
sbsg7
(g11
S'\x05\x00\x00\x00\x00\x00\x00\x00'
p7341
tp7342
Rp7343
(i__main__
TreeNode
p7344
(dp7345
g5
(dp7346
sg44
I00
sbsI-1
(i__main__
TreeNode
p7347
(dp7348
g5
(dp7349
sg44
I00
sbssg44
I85
sbsg7
(g11
S'\x03\x00\x00\x00\x00\x00\x00\x00'
p7350
tp7351
Rp7352
(i__main__
TreeNode
p7353
(dp7354
g5
(dp7355
sg44
I00
sbsg7
(g11
S'\x04\x00\x00\x00\x00\x00\x00\x00'
p7356
tp7357
Rp7358
(i__main__
TreeNode
p7359
(dp7360
g5
(dp7361
sg44
I00
sbsg7
(g11
S'\x05\x00\x00\x00\x00\x00\x00\x00'
p7362
tp7363
Rp7364
(i__main__
TreeNode
p7365
(dp7366
g5
(dp7367
sg44
I00
sbsI-1
(i__main__
TreeNode
p7368
(dp7369
g5
(dp7370
sg44
I00
sbssg44
I82
sbsg7
(g11
S'\x05\x00\x00\x00\x00\x00\x00\x00'
p7371
tp7372
Rp7373
(i__main__
TreeNode
p7374
(dp7375
g5
(dp7376
sg44
I00
sbsg7
(g11
S'\x06\x00\x00\x00\x00\x00\x00\x00'
p7377
tp7378
Rp7379
(i__main__
TreeNode
p7380
(dp7381
g5
(dp7382
sg44
I00
sbsg7
(g11
S'\x07\x00\x00\x00\x00\x00\x00\x00'
p7383
tp7384
Rp7385
(i__main__
TreeNode
p7386
(dp7387
g5
(dp7388
sg44
I00
sbsI-1
(i__main__
TreeNode
p7389
(dp7390
g5
(dp7391
sg44
I00
sbssg44
I273
sbsg7
(g11
S'\x02\x00\x00\x00\x00\x00\x00\x00'
p7392
tp7393
Rp7394
(i__main__
TreeNode
p7395
(dp7396
g5
(dp7397
g7
(g11
S'\x01\x00\x00\x00\x00\x00\x00\x00'
p7398
tp7399
Rp7400
(i__main__
TreeNode
p7401
(dp7402
g5
(dp7403
sg44
I00
sbsg7
(g11
S'\x02\x00\x00\x00\x00\x00\x00\x00'
p7404
tp7405
Rp7406
(i__main__
TreeNode
p7407
(dp7408
g5
(dp7409
sg44
I00
sbsg7
(g11
S'\x03\x00\x00\x00\x00\x00\x00\x00'
p7410
tp7411
Rp7412
(i__main__
TreeNode
p7413
(dp7414
g5
(dp7415
sg44
I00
sbsg7
(g11
S'\x04\x00\x00\x00\x00\x00\x00\x00'
p7416
tp7417
Rp7418
(i__main__
TreeNode
p7419
(dp7420
g5
(dp7421
sg44
I00
sbsg7
(g11
S'\x05\x00\x00\x00\x00\x00\x00\x00'
p7422
tp7423
Rp7424
(i__main__
TreeNode
p7425
(dp7426
g5
(dp7427
sg44
I00
sbsI-1
(i__main__
TreeNode
p7428
(dp7429
g5
(dp7430
sg44
I00
sbssg44
I88
sbsg7
(g11
S'\x03\x00\x00\x00\x00\x00\x00\x00'
p7431
tp7432
Rp7433
(i__main__
TreeNode
p7434
(dp7435
g5
(dp7436
sg44
I00
sbsg7
(g11
S'\x04\x00\x00\x00\x00\x00\x00\x00'
p7437
tp7438
Rp7439
(i__main__
TreeNode
p7440
(dp7441
g5
(dp7442
g7
(g11
S'\x01\x00\x00\x00\x00\x00\x00\x00'
p7443
tp7444
Rp7445
(i__main__
TreeNode
p7446
(dp7447
g5
(dp7448
sg44
I00
sbsg7
(g11
S'\x02\x00\x00\x00\x00\x00\x00\x00'
p7449
tp7450
Rp7451
(i__main__
TreeNode
p7452
(dp7453
g5
(dp7454
sg44
I00
sbsg7
(g11
S'\x03\x00\x00\x00\x00\x00\x00\x00'
p7455
tp7456
Rp7457
(i__main__
TreeNode
p7458
(dp7459
g5
(dp7460
sg44
I00
sbsg7
(g11
S'\x04\x00\x00\x00\x00\x00\x00\x00'
p7461
tp7462
Rp7463
(i__main__
TreeNode
p7464
(dp7465
g5
(dp7466
sg44
I00
sbsg7
(g11
S'\x05\x00\x00\x00\x00\x00\x00\x00'
p7467
tp7468
Rp7469
(i__main__
TreeNode
p7470
(dp7471
g5
(dp7472
sg44
I00
sbsg7
(g11
S'\x07\x00\x00\x00\x00\x00\x00\x00'
p7473
tp7474
Rp7475
(i__main__
TreeNode
p7476
(dp7477
g5
(dp7478
sg44
I00
sbsI-1
(i__main__
TreeNode
p7479
(dp7480
g5
(dp7481
sg44
I00
sbssg44
I273
sbsg7
(g11
S'\x05\x00\x00\x00\x00\x00\x00\x00'
p7482
tp7483
Rp7484
(i__main__
TreeNode
p7485
(dp7486
g5
(dp7487
sg44
I00
sbsI-1
(i__main__
TreeNode
p7488
(dp7489
g5
(dp7490
sg44
I00
sbssg44
I86
sbsg7
(g11
S'\x02\x00\x00\x00\x00\x00\x00\x00'
p7491
tp7492
Rp7493
(i__main__
TreeNode
p7494
(dp7495
g5
(dp7496
g7
(g11
S'\x01\x00\x00\x00\x00\x00\x00\x00'
p7497
tp7498
Rp7499
(i__main__
TreeNode
p7500
(dp7501
g5
(dp7502
g7
(g11
S'\x01\x00\x00\x00\x00\x00\x00\x00'
p7503
tp7504
Rp7505
(i__main__
TreeNode
p7506
(dp7507
g5
(dp7508
g7
(g11
S'\x01\x00\x00\x00\x00\x00\x00\x00'
p7509
tp7510
Rp7511
(i__main__
TreeNode
p7512
(dp7513
g5
(dp7514
sg44
I00
sbsg7
(g11
S'\x02\x00\x00\x00\x00\x00\x00\x00'
p7515
tp7516
Rp7517
(i__main__
TreeNode
p7518
(dp7519
g5
(dp7520
sg44
I00
sbsg7
(g11
S'\x03\x00\x00\x00\x00\x00\x00\x00'
p7521
tp7522
Rp7523
(i__main__
TreeNode
p7524
(dp7525
g5
(dp7526
sg44
I00
sbsg7
(g11
S'\x04\x00\x00\x00\x00\x00\x00\x00'
p7527
tp7528
Rp7529
(i__main__
TreeNode
p7530
(dp7531
g5
(dp7532
sg44
I00
sbsg7
(g11
S'\x05\x00\x00\x00\x00\x00\x00\x00'
p7533
tp7534
Rp7535
(i__main__
TreeNode
p7536
(dp7537
g5
(dp7538
sg44
I00
sbsI-1
(i__main__
TreeNode
p7539
(dp7540
g5
(dp7541
sg44
I00
sbssg44
I88
sbsg7
(g11
S'\x02\x00\x00\x00\x00\x00\x00\x00'
p7542
tp7543
Rp7544
(i__main__
TreeNode
p7545
(dp7546
g5
(dp7547
sg44
I01
sbsg7
(g11
S'\x04\x00\x00\x00\x00\x00\x00\x00'
p7548
tp7549
Rp7550
(i__main__
TreeNode
p7551
(dp7552
g5
(dp7553
sg44
I01
sbsI-1
(i__main__
TreeNode
p7554
(dp7555
g5
(dp7556
sg44
I00
sbssg44
I84
sbsg7
(g11
S'\x02\x00\x00\x00\x00\x00\x00\x00'
p7557
tp7558
Rp7559
(i__main__
TreeNode
p7560
(dp7561
g5
(dp7562
sg44
I00
sbsg7
(g11
S'\x03\x00\x00\x00\x00\x00\x00\x00'
p7563
tp7564
Rp7565
(i__main__
TreeNode
p7566
(dp7567
g5
(dp7568
sg44
I00
sbsg7
(g11
S'\x04\x00\x00\x00\x00\x00\x00\x00'
p7569
tp7570
Rp7571
(i__main__
TreeNode
p7572
(dp7573
g5
(dp7574
sg44
I00
sbsg7
(g11
S'\x05\x00\x00\x00\x00\x00\x00\x00'
p7575
tp7576
Rp7577
(i__main__
TreeNode
p7578
(dp7579
g5
(dp7580
sg44
I00
sbsg7
(g11
S'\x06\x00\x00\x00\x00\x00\x00\x00'
p7581
tp7582
Rp7583
(i__main__
TreeNode
p7584
(dp7585
g5
(dp7586
sg44
I01
sbsg7
(g11
S'\x07\x00\x00\x00\x00\x00\x00\x00'
p7587
tp7588
Rp7589
(i__main__
TreeNode
p7590
(dp7591
g5
(dp7592
sg44
I00
sbsg7
(g11
S'\x08\x00\x00\x00\x00\x00\x00\x00'
p7593
tp7594
Rp7595
(i__main__
TreeNode
p7596
(dp7597
g5
(dp7598
sg44
I00
sbsg7
(g11
S'\t\x00\x00\x00\x00\x00\x00\x00'
p7599
tp7600
Rp7601
(i__main__
TreeNode
p7602
(dp7603
g5
(dp7604
sg44
I00
sbsg7
(g11
S'\n\x00\x00\x00\x00\x00\x00\x00'
p7605
tp7606
Rp7607
(i__main__
TreeNode
p7608
(dp7609
g5
(dp7610
sg44
I01
sbsg7
(g11
S'\x0b\x00\x00\x00\x00\x00\x00\x00'
p7611
tp7612
Rp7613
(i__main__
TreeNode
p7614
(dp7615
g5
(dp7616
sg44
I00
sbsg7
(g11
S'\x0c\x00\x00\x00\x00\x00\x00\x00'
p7617
tp7618
Rp7619
(i__main__
TreeNode
p7620
(dp7621
g5
(dp7622
sg44
I00
sbsg7
(g11
S'\r\x00\x00\x00\x00\x00\x00\x00'
p7623
tp7624
Rp7625
(i__main__
TreeNode
p7626
(dp7627
g5
(dp7628
sg44
I00
sbsg7
(g11
S'\x0e\x00\x00\x00\x00\x00\x00\x00'
p7629
tp7630
Rp7631
(i__main__
TreeNode
p7632
(dp7633
g5
(dp7634
sg44
I00
sbsg7
(g11
S'\x12\x00\x00\x00\x00\x00\x00\x00'
p7635
tp7636
Rp7637
(i__main__
TreeNode
p7638
(dp7639
g5
(dp7640
sg44
I00
sbsI-1
(i__main__
TreeNode
p7641
(dp7642
g5
(dp7643
sg44
I00
sbssg44
I263
sbsg7
(g11
S'\x03\x00\x00\x00\x00\x00\x00\x00'
p7644
tp7645
Rp7646
(i__main__
TreeNode
p7647
(dp7648
g5
(dp7649
sg44
I00
sbsg7
(g11
S'\x04\x00\x00\x00\x00\x00\x00\x00'
p7650
tp7651
Rp7652
(i__main__
TreeNode
p7653
(dp7654
g5
(dp7655
sg44
I00
sbsg7
(g11
S'\x05\x00\x00\x00\x00\x00\x00\x00'
p7656
tp7657
Rp7658
(i__main__
TreeNode
p7659
(dp7660
g5
(dp7661
sg44
I00
sbsg7
(g11
S'\x06\x00\x00\x00\x00\x00\x00\x00'
p7662
tp7663
Rp7664
(i__main__
TreeNode
p7665
(dp7666
g5
(dp7667
sg44
I00
sbsI-1
(i__main__
TreeNode
p7668
(dp7669
g5
(dp7670
sg44
I00
sbssg44
I272
sbsg7
(g11
S'\x05\x00\x00\x00\x00\x00\x00\x00'
p7671
tp7672
Rp7673
(i__main__
TreeNode
p7674
(dp7675
g5
(dp7676
g7
(g11
S'\x01\x00\x00\x00\x00\x00\x00\x00'
p7677
tp7678
Rp7679
(i__main__
TreeNode
p7680
(dp7681
g5
(dp7682
sg44
I00
sbsg7
(g11
S'\x02\x00\x00\x00\x00\x00\x00\x00'
p7683
tp7684
Rp7685
(i__main__
TreeNode
p7686
(dp7687
g5
(dp7688
sg44
I00
sbsg7
(g11
S'\x03\x00\x00\x00\x00\x00\x00\x00'
p7689
tp7690
Rp7691
(i__main__
TreeNode
p7692
(dp7693
g5
(dp7694
sg44
I00
sbsg7
(g11
S'\x04\x00\x00\x00\x00\x00\x00\x00'
p7695
tp7696
Rp7697
(i__main__
TreeNode
p7698
(dp7699
g5
(dp7700
sg44
I00
sbsg7
(g11
S'\x05\x00\x00\x00\x00\x00\x00\x00'
p7701
tp7702
Rp7703
(i__main__
TreeNode
p7704
(dp7705
g5
(dp7706
sg44
I00
sbsg7
(g11
S'\x06\x00\x00\x00\x00\x00\x00\x00'
p7707
tp7708
Rp7709
(i__main__
TreeNode
p7710
(dp7711
g5
(dp7712
sg44
I00
sbsg7
(g11
S'\x07\x00\x00\x00\x00\x00\x00\x00'
p7713
tp7714
Rp7715
(i__main__
TreeNode
p7716
(dp7717
g5
(dp7718
sg44
I00
sbsI-1
(i__main__
TreeNode
p7719
(dp7720
g5
(dp7721
sg44
I00
sbssg44
I273
sbsg7
(g11
S'\x06\x00\x00\x00\x00\x00\x00\x00'
p7722
tp7723
Rp7724
(i__main__
TreeNode
p7725
(dp7726
g5
(dp7727
sg44
I00
sbsg7
(g11
S'\x07\x00\x00\x00\x00\x00\x00\x00'
p7728
tp7729
Rp7730
(i__main__
TreeNode
p7731
(dp7732
g5
(dp7733
g7
(g11
S'\x01\x00\x00\x00\x00\x00\x00\x00'
p7734
tp7735
Rp7736
(i__main__
TreeNode
p7737
(dp7738
g5
(dp7739
sg44
I00
sbsg7
(g11
S'\x02\x00\x00\x00\x00\x00\x00\x00'
p7740
tp7741
Rp7742
(i__main__
TreeNode
p7743
(dp7744
g5
(dp7745
sg44
I00
sbsg7
(g11
S'\x03\x00\x00\x00\x00\x00\x00\x00'
p7746
tp7747
Rp7748
(i__main__
TreeNode
p7749
(dp7750
g5
(dp7751
sg44
I00
sbsg7
(g11
S'\x04\x00\x00\x00\x00\x00\x00\x00'
p7752
tp7753
Rp7754
(i__main__
TreeNode
p7755
(dp7756
g5
(dp7757
sg44
I00
sbsg7
(g11
S'\x05\x00\x00\x00\x00\x00\x00\x00'
p7758
tp7759
Rp7760
(i__main__
TreeNode
p7761
(dp7762
g5
(dp7763
sg44
I00
sbsI-1
(i__main__
TreeNode
p7764
(dp7765
g5
(dp7766
sg44
I00
sbssg44
I81
sbsg7
(g11
S'\x08\x00\x00\x00\x00\x00\x00\x00'
p7767
tp7768
Rp7769
(i__main__
TreeNode
p7770
(dp7771
g5
(dp7772
sg44
I00
sbsg7
(g11
S'\t\x00\x00\x00\x00\x00\x00\x00'
p7773
tp7774
Rp7775
(i__main__
TreeNode
p7776
(dp7777
g5
(dp7778
sg44
I00
sbsg7
(g11
S'\n\x00\x00\x00\x00\x00\x00\x00'
p7779
tp7780
Rp7781
(i__main__
TreeNode
p7782
(dp7783
g5
(dp7784
sg44
I00
sbsg7
(g11
S'\x0b\x00\x00\x00\x00\x00\x00\x00'
p7785
tp7786
Rp7787
(i__main__
TreeNode
p7788
(dp7789
g5
(dp7790
sg44
I00
sbsg7
(g11
S'\x0c\x00\x00\x00\x00\x00\x00\x00'
p7791
tp7792
Rp7793
(i__main__
TreeNode
p7794
(dp7795
g5
(dp7796
sg44
I00
sbsg7
(g11
S'\r\x00\x00\x00\x00\x00\x00\x00'
p7797
tp7798
Rp7799
(i__main__
TreeNode
p7800
(dp7801
g5
(dp7802
sg44
I00
sbsg7
(g11
S'\x0e\x00\x00\x00\x00\x00\x00\x00'
p7803
tp7804
Rp7805
(i__main__
TreeNode
p7806
(dp7807
g5
(dp7808
sg44
I00
sbsg7
(g11
S'\x0f\x00\x00\x00\x00\x00\x00\x00'
p7809
tp7810
Rp7811
(i__main__
TreeNode
p7812
(dp7813
g5
(dp7814
sg44
I00
sbsg7
(g11
S'\x10\x00\x00\x00\x00\x00\x00\x00'
p7815
tp7816
Rp7817
(i__main__
TreeNode
p7818
(dp7819
g5
(dp7820
g7
(g11
S'\x03\x00\x00\x00\x00\x00\x00\x00'
p7821
tp7822
Rp7823
(i__main__
TreeNode
p7824
(dp7825
g5
(dp7826
sg44
I01
sbsg7
(g11
S'\x04\x00\x00\x00\x00\x00\x00\x00'
p7827
tp7828
Rp7829
(i__main__
TreeNode
p7830
(dp7831
g5
(dp7832
sg44
I00
sbsg7
(g11
S'\x05\x00\x00\x00\x00\x00\x00\x00'
p7833
tp7834
Rp7835
(i__main__
TreeNode
p7836
(dp7837
g5
(dp7838
sg44
I00
sbsI-1
(i__main__
TreeNode
p7839
(dp7840
g5
(dp7841
sg44
I00
sbssg44
I85
sbsg7
(g11
S'\x11\x00\x00\x00\x00\x00\x00\x00'
p7842
tp7843
Rp7844
(i__main__
TreeNode
p7845
(dp7846
g5
(dp7847
sg44
I00
sbsg7
(g11
S'\x12\x00\x00\x00\x00\x00\x00\x00'
p7848
tp7849
Rp7850
(i__main__
TreeNode
p7851
(dp7852
g5
(dp7853
sg44
I00
sbsg7
(g11
S'\x13\x00\x00\x00\x00\x00\x00\x00'
p7854
tp7855
Rp7856
(i__main__
TreeNode
p7857
(dp7858
g5
(dp7859
sg44
I00
sbsg7
(g11
S'\x14\x00\x00\x00\x00\x00\x00\x00'
p7860
tp7861
Rp7862
(i__main__
TreeNode
p7863
(dp7864
g5
(dp7865
sg44
I00
sbsg7
(g11
S'\x15\x00\x00\x00\x00\x00\x00\x00'
p7866
tp7867
Rp7868
(i__main__
TreeNode
p7869
(dp7870
g5
(dp7871
sg44
I00
sbsg7
(g11
S'\x16\x00\x00\x00\x00\x00\x00\x00'
p7872
tp7873
Rp7874
(i__main__
TreeNode
p7875
(dp7876
g5
(dp7877
sg44
I00
sbsg7
(g11
S'\x17\x00\x00\x00\x00\x00\x00\x00'
p7878
tp7879
Rp7880
(i__main__
TreeNode
p7881
(dp7882
g5
(dp7883
sg44
I00
sbsg7
(g11
S'\x18\x00\x00\x00\x00\x00\x00\x00'
p7884
tp7885
Rp7886
(i__main__
TreeNode
p7887
(dp7888
g5
(dp7889
sg44
I00
sbsI-1
(i__main__
TreeNode
p7890
(dp7891
g5
(dp7892
sg44
I00
sbssg44
I268
sbsg7
(g11
S'\x04\x00\x00\x00\x00\x00\x00\x00'
p7893
tp7894
Rp7895
(i__main__
TreeNode
p7896
(dp7897
g5
(dp7898
g7
(g11
S'\x01\x00\x00\x00\x00\x00\x00\x00'
p7899
tp7900
Rp7901
(i__main__
TreeNode
p7902
(dp7903
g5
(dp7904
sg44
I00
sbsg7
(g11
S'\x02\x00\x00\x00\x00\x00\x00\x00'
p7905
tp7906
Rp7907
(i__main__
TreeNode
p7908
(dp7909
g5
(dp7910
sg44
I00
sbsg7
(g11
S'\x03\x00\x00\x00\x00\x00\x00\x00'
p7911
tp7912
Rp7913
(i__main__
TreeNode
p7914
(dp7915
g5
(dp7916
g7
(g11
S'\x01\x00\x00\x00\x00\x00\x00\x00'
p7917
tp7918
Rp7919
(i__main__
TreeNode
p7920
(dp7921
g5
(dp7922
g7
(g11
S'\x02\x00\x00\x00\x00\x00\x00\x00'
p7923
tp7924
Rp7925
(i__main__
TreeNode
p7926
(dp7927
g5
(dp7928
sg44
I01
sbsg7
(g11
S'\x03\x00\x00\x00\x00\x00\x00\x00'
p7929
tp7930
Rp7931
(i__main__
TreeNode
p7932
(dp7933
g5
(dp7934
sg44
I00
sbsg7
(g11
S'\x04\x00\x00\x00\x00\x00\x00\x00'
p7935
tp7936
Rp7937
(i__main__
TreeNode
p7938
(dp7939
g5
(dp7940
sg44
I01
sbsg7
(g11
S'\x05\x00\x00\x00\x00\x00\x00\x00'
p7941
tp7942
Rp7943
(i__main__
TreeNode
p7944
(dp7945
g5
(dp7946
sg44
I01
sbsI-1
(i__main__
TreeNode
p7947
(dp7948
g5
(dp7949
sg44
I01
sbssg44
I88
sbsg7
(g11
S'\x02\x00\x00\x00\x00\x00\x00\x00'
p7950
tp7951
Rp7952
(i__main__
TreeNode
p7953
(dp7954
g5
(dp7955
sg44
I01
sbsg7
(g11
S'\x03\x00\x00\x00\x00\x00\x00\x00'
p7956
tp7957
Rp7958
(i__main__
TreeNode
p7959
(dp7960
g5
(dp7961
sg44
I00
sbsg7
(g11
S'\x04\x00\x00\x00\x00\x00\x00\x00'
p7962
tp7963
Rp7964
(i__main__
TreeNode
p7965
(dp7966
g5
(dp7967
sg44
I00
sbsg7
(g11
S'\x06\x00\x00\x00\x00\x00\x00\x00'
p7968
tp7969
Rp7970
(i__main__
TreeNode
p7971
(dp7972
g5
(dp7973
sg44
I00
sbsg7
(g11
S'\x08\x00\x00\x00\x00\x00\x00\x00'
p7974
tp7975
Rp7976
(i__main__
TreeNode
p7977
(dp7978
g5
(dp7979
sg44
I00
sbsI-1
(i__main__
TreeNode
p7980
(dp7981
g5
(dp7982
sg44
I01
sbssg44
I264
sbsg7
(g11
S'\x04\x00\x00\x00\x00\x00\x00\x00'
p7983
tp7984
Rp7985
(i__main__
TreeNode
p7986
(dp7987
g5
(dp7988
g7
(g11
S'\x01\x00\x00\x00\x00\x00\x00\x00'
p7989
tp7990
Rp7991
(i__main__
TreeNode
p7992
(dp7993
g5
(dp7994
sg44
I01
sbsg7
(g11
S'\x02\x00\x00\x00\x00\x00\x00\x00'
p7995
tp7996
Rp7997
(i__main__
TreeNode
p7998
(dp7999
g5
(dp8000
sg44
I01
sbsg7
(g11
S'\x03\x00\x00\x00\x00\x00\x00\x00'
p8001
tp8002
Rp8003
(i__main__
TreeNode
p8004
(dp8005
g5
(dp8006
sg44
I00
sbsg7
(g11
S'\x10\x00\x00\x00\x00\x00\x00\x00'
p8007
tp8008
Rp8009
(i__main__
TreeNode
p8010
(dp8011
g5
(dp8012
sg44
I01
sbsg7
(g11
S'\x11\x00\x00\x00\x00\x00\x00\x00'
p8013
tp8014
Rp8015
(i__main__
TreeNode
p8016
(dp8017
g5
(dp8018
sg44
I01
sbsI-1
(i__main__
TreeNode
p8019
(dp8020
g5
(dp8021
sg44
I01
sbssg44
I1
sbsg7
(g11
S'\x06\x00\x00\x00\x00\x00\x00\x00'
p8022
tp8023
Rp8024
(i__main__
TreeNode
p8025
(dp8026
g5
(dp8027
sg44
I01
sbsg7
(g11
S'\x07\x00\x00\x00\x00\x00\x00\x00'
p8028
tp8029
Rp8030
(i__main__
TreeNode
p8031
(dp8032
g5
(dp8033
sg44
I01
sbsg7
(g11
S'\x08\x00\x00\x00\x00\x00\x00\x00'
p8034
tp8035
Rp8036
(i__main__
TreeNode
p8037
(dp8038
g5
(dp8039
g7
(g11
S'\x01\x00\x00\x00\x00\x00\x00\x00'
p8040
tp8041
Rp8042
(i__main__
TreeNode
p8043
(dp8044
g5
(dp8045
sg44
I01
sbsg7
(g11
S'\x02\x00\x00\x00\x00\x00\x00\x00'
p8046
tp8047
Rp8048
(i__main__
TreeNode
p8049
(dp8050
g5
(dp8051
sg44
I00
sbsI-1
(i__main__
TreeNode
p8052
(dp8053
g5
(dp8054
sg44
I01
sbssg44
I0
sbsg7
(g11
S'\t\x00\x00\x00\x00\x00\x00\x00'
p8055
tp8056
Rp8057
(i__main__
TreeNode
p8058
(dp8059
g5
(dp8060
sg44
I00
sbsg7
(g11
S'\x0b\x00\x00\x00\x00\x00\x00\x00'
p8061
tp8062
Rp8063
(i__main__
TreeNode
p8064
(dp8065
g5
(dp8066
g7
(g11
S'\x01\x00\x00\x00\x00\x00\x00\x00'
p8067
tp8068
Rp8069
(i__main__
TreeNode
p8070
(dp8071
g5
(dp8072
sg44
I01
sbsg7
(g11
S'\x02\x00\x00\x00\x00\x00\x00\x00'
p8073
tp8074
Rp8075
(i__main__
TreeNode
p8076
(dp8077
g5
(dp8078
sg44
I01
sbsg7
(g11
S'\x05\x00\x00\x00\x00\x00\x00\x00'
p8079
tp8080
Rp8081
(i__main__
TreeNode
p8082
(dp8083
g5
(dp8084
sg44
I00
sbsI-1
(i__main__
TreeNode
p8085
(dp8086
g5
(dp8087
sg44
I01
sbssg44
I10
sbsg7
(g11
S'\x0c\x00\x00\x00\x00\x00\x00\x00'
p8088
tp8089
Rp8090
(i__main__
TreeNode
p8091
(dp8092
g5
(dp8093
sg44
I01
sbsg7
(g11
S'\x0e\x00\x00\x00\x00\x00\x00\x00'
p8094
tp8095
Rp8096
(i__main__
TreeNode
p8097
(dp8098
g5
(dp8099
sg44
I01
sbsg7
(g11
S'\x0f\x00\x00\x00\x00\x00\x00\x00'
p8100
tp8101
Rp8102
(i__main__
TreeNode
p8103
(dp8104
g5
(dp8105
sg44
I00
sbsg7
(g11
S'\x11\x00\x00\x00\x00\x00\x00\x00'
p8106
tp8107
Rp8108
(i__main__
TreeNode
p8109
(dp8110
g5
(dp8111
sg44
I01
sbsg7
(g11
S'\x12\x00\x00\x00\x00\x00\x00\x00'
p8112
tp8113
Rp8114
(i__main__
TreeNode
p8115
(dp8116
g5
(dp8117
g7
(g11
S'\x03\x00\x00\x00\x00\x00\x00\x00'
p8118
tp8119
Rp8120
(i__main__
TreeNode
p8121
(dp8122
g5
(dp8123
sg44
I00
sbsg7
(g11
S'\x05\x00\x00\x00\x00\x00\x00\x00'
p8124
tp8125
Rp8126
(i__main__
TreeNode
p8127
(dp8128
g5
(dp8129
sg44
I01
sbsI-1
(i__main__
TreeNode
p8130
(dp8131
g5
(dp8132
sg44
I01
sbssg44
I0
sbsg7
(g11
S'\x14\x00\x00\x00\x00\x00\x00\x00'
p8133
tp8134
Rp8135
(i__main__
TreeNode
p8136
(dp8137
g5
(dp8138
sg44
I01
sbsg7
(g11
S'\x15\x00\x00\x00\x00\x00\x00\x00'
p8139
tp8140
Rp8141
(i__main__
TreeNode
p8142
(dp8143
g5
(dp8144
sg44
I01
sbsg7
(g11
S'\x16\x00\x00\x00\x00\x00\x00\x00'
p8145
tp8146
Rp8147
(i__main__
TreeNode
p8148
(dp8149
g5
(dp8150
sg44
I01
sbsg7
(g11
S'\x17\x00\x00\x00\x00\x00\x00\x00'
p8151
tp8152
Rp8153
(i__main__
TreeNode
p8154
(dp8155
g5
(dp8156
g7
(g11
S'\x01\x00\x00\x00\x00\x00\x00\x00'
p8157
tp8158
Rp8159
(i__main__
TreeNode
p8160
(dp8161
g5
(dp8162
sg44
I00
sbsg7
(g11
S'\x04\x00\x00\x00\x00\x00\x00\x00'
p8163
tp8164
Rp8165
(i__main__
TreeNode
p8166
(dp8167
g5
(dp8168
sg44
I01
sbsI-1
(i__main__
TreeNode
p8169
(dp8170
g5
(dp8171
sg44
I01
sbssg44
I0
sbsg7
(g11
S'\x18\x00\x00\x00\x00\x00\x00\x00'
p8172
tp8173
Rp8174
(i__main__
TreeNode
p8175
(dp8176
g5
(dp8177
sg44
I01
sbsg7
(g11
S'\x19\x00\x00\x00\x00\x00\x00\x00'
p8178
tp8179
Rp8180
(i__main__
TreeNode
p8181
(dp8182
g5
(dp8183
sg44
I01
sbsg7
(g11
S'\x1c\x00\x00\x00\x00\x00\x00\x00'
p8184
tp8185
Rp8186
(i__main__
TreeNode
p8187
(dp8188
g5
(dp8189
sg44
I00
sbsg7
(g11
S'\x1d\x00\x00\x00\x00\x00\x00\x00'
p8190
tp8191
Rp8192
(i__main__
TreeNode
p8193
(dp8194
g5
(dp8195
sg44
I01
sbsg7
(g11
S'\x1e\x00\x00\x00\x00\x00\x00\x00'
p8196
tp8197
Rp8198
(i__main__
TreeNode
p8199
(dp8200
g5
(dp8201
sg44
I00
sbsg7
(g11
S'\x1f\x00\x00\x00\x00\x00\x00\x00'
p8202
tp8203
Rp8204
(i__main__
TreeNode
p8205
(dp8206
g5
(dp8207
sg44
I01
sbsg7
(g11
S' \x00\x00\x00\x00\x00\x00\x00'
p8208
tp8209
Rp8210
(i__main__
TreeNode
p8211
(dp8212
g5
(dp8213
sg44
I01
sbsg7
(g11
S'!\x00\x00\x00\x00\x00\x00\x00'
p8214
tp8215
Rp8216
(i__main__
TreeNode
p8217
(dp8218
g5
(dp8219
sg44
I01
sbsg7
(g11
S'"\x00\x00\x00\x00\x00\x00\x00'
p8220
tp8221
Rp8222
(i__main__
TreeNode
p8223
(dp8224
g5
(dp8225
sg44
I01
sbsg7
(g11
S'$\x00\x00\x00\x00\x00\x00\x00'
p8226
tp8227
Rp8228
(i__main__
TreeNode
p8229
(dp8230
g5
(dp8231
sg44
I01
sbsg7
(g11
S'&\x00\x00\x00\x00\x00\x00\x00'
p8232
tp8233
Rp8234
(i__main__
TreeNode
p8235
(dp8236
g5
(dp8237
sg44
I01
sbsg7
(g11
S"'\x00\x00\x00\x00\x00\x00\x00"
p8238
tp8239
Rp8240
(i__main__
TreeNode
p8241
(dp8242
g5
(dp8243
sg44
I01
sbsg7
(g11
S'(\x00\x00\x00\x00\x00\x00\x00'
p8244
tp8245
Rp8246
(i__main__
TreeNode
p8247
(dp8248
g5
(dp8249
sg44
I01
sbsg7
(g11
S'+\x00\x00\x00\x00\x00\x00\x00'
p8250
tp8251
Rp8252
(i__main__
TreeNode
p8253
(dp8254
g5
(dp8255
sg44
I01
sbsg7
(g11
S'-\x00\x00\x00\x00\x00\x00\x00'
p8256
tp8257
Rp8258
(i__main__
TreeNode
p8259
(dp8260
g5
(dp8261
sg44
I01
sbsg7
(g11
S'.\x00\x00\x00\x00\x00\x00\x00'
p8262
tp8263
Rp8264
(i__main__
TreeNode
p8265
(dp8266
g5
(dp8267
sg44
I01
sbsg7
(g11
S'0\x00\x00\x00\x00\x00\x00\x00'
p8268
tp8269
Rp8270
(i__main__
TreeNode
p8271
(dp8272
g5
(dp8273
sg44
I00
sbsI-1
(i__main__
TreeNode
p8274
(dp8275
g5
(dp8276
sg44
I00
sbssg44
I15
sbsg7
(g11
S'\x05\x00\x00\x00\x00\x00\x00\x00'
p8277
tp8278
Rp8279
(i__main__
TreeNode
p8280
(dp8281
g5
(dp8282
g7
(g11
S'\x01\x00\x00\x00\x00\x00\x00\x00'
p8283
tp8284
Rp8285
(i__main__
TreeNode
p8286
(dp8287
g5
(dp8288
g7
(g11
S'\x01\x00\x00\x00\x00\x00\x00\x00'
p8289
tp8290
Rp8291
(i__main__
TreeNode
p8292
(dp8293
g5
(dp8294
g7
(g11
S'\x01\x00\x00\x00\x00\x00\x00\x00'
p8295
tp8296
Rp8297
(i__main__
TreeNode
p8298
(dp8299
g5
(dp8300
g7
(g11
S'\x03\x00\x00\x00\x00\x00\x00\x00'
p8301
tp8302
Rp8303
(i__main__
TreeNode
p8304
(dp8305
g5
(dp8306
sg44
I01
sbsg7
(g11
S'\x04\x00\x00\x00\x00\x00\x00\x00'
p8307
tp8308
Rp8309
(i__main__
TreeNode
p8310
(dp8311
g5
(dp8312
g7
(g11
S'\x01\x00\x00\x00\x00\x00\x00\x00'
p8313
tp8314
Rp8315
(i__main__
TreeNode
p8316
(dp8317
g5
(dp8318
g7
(g11
S'\x01\x00\x00\x00\x00\x00\x00\x00'
p8319
tp8320
Rp8321
(i__main__
TreeNode
p8322
(dp8323
g5
(dp8324
sg44
I00
sbsg7
(g11
S'\x02\x00\x00\x00\x00\x00\x00\x00'
p8325
tp8326
Rp8327
(i__main__
TreeNode
p8328
(dp8329
g5
(dp8330
g7
(g11
S'\x01\x00\x00\x00\x00\x00\x00\x00'
p8331
tp8332
Rp8333
(i__main__
TreeNode
p8334
(dp8335
g5
(dp8336
g7
(g11
S'\x03\x00\x00\x00\x00\x00\x00\x00'
p8337
tp8338
Rp8339
(i__main__
TreeNode
p8340
(dp8341
g5
(dp8342
sg44
I00
sbsg7
(g11
S'\x04\x00\x00\x00\x00\x00\x00\x00'
p8343
tp8344
Rp8345
(i__main__
TreeNode
p8346
(dp8347
g5
(dp8348
sg44
I00
sbsg7
(g11
S'\x05\x00\x00\x00\x00\x00\x00\x00'
p8349
tp8350
Rp8351
(i__main__
TreeNode
p8352
(dp8353
g5
(dp8354
sg44
I00
sbsI-1
(i__main__
TreeNode
p8355
(dp8356
g5
(dp8357
sg44
I00
sbsg7
(g11
S'\x07\x00\x00\x00\x00\x00\x00\x00'
p8358
tp8359
Rp8360
(i__main__
TreeNode
p8361
(dp8362
g5
(dp8363
sg44
I01
sbssg44
I87
sbsg7
(g11
S'\x02\x00\x00\x00\x00\x00\x00\x00'
p8364
tp8365
Rp8366
(i__main__
TreeNode
p8367
(dp8368
g5
(dp8369
sg44
I01
sbsg7
(g11
S'\x03\x00\x00\x00\x00\x00\x00\x00'
p8370
tp8371
Rp8372
(i__main__
TreeNode
p8373
(dp8374
g5
(dp8375
sg44
I01
sbsg7
(g11
S'\x05\x00\x00\x00\x00\x00\x00\x00'
p8376
tp8377
Rp8378
(i__main__
TreeNode
p8379
(dp8380
g5
(dp8381
sg44
I00
sbsg7
(g11
S'\x06\x00\x00\x00\x00\x00\x00\x00'
p8382
tp8383
Rp8384
(i__main__
TreeNode
p8385
(dp8386
g5
(dp8387
sg44
I00
sbsI-1
(i__main__
TreeNode
p8388
(dp8389
g5
(dp8390
sg44
I00
sbssg44
I267
sbsg7
(g11
S'\x03\x00\x00\x00\x00\x00\x00\x00'
p8391
tp8392
Rp8393
(i__main__
TreeNode
p8394
(dp8395
g5
(dp8396
sg44
I00
sbsg7
(g11
S'\x04\x00\x00\x00\x00\x00\x00\x00'
p8397
tp8398
Rp8399
(i__main__
TreeNode
p8400
(dp8401
g5
(dp8402
g7
(g11
S'\x01\x00\x00\x00\x00\x00\x00\x00'
p8403
tp8404
Rp8405
(i__main__
TreeNode
p8406
(dp8407
g5
(dp8408
sg44
I00
sbsg7
(g11
S'\x02\x00\x00\x00\x00\x00\x00\x00'
p8409
tp8410
Rp8411
(i__main__
TreeNode
p8412
(dp8413
g5
(dp8414
sg44
I01
sbsg7
(g11
S'\x03\x00\x00\x00\x00\x00\x00\x00'
p8415
tp8416
Rp8417
(i__main__
TreeNode
p8418
(dp8419
g5
(dp8420
sg44
I00
sbsg7
(g11
S'\x04\x00\x00\x00\x00\x00\x00\x00'
p8421
tp8422
Rp8423
(i__main__
TreeNode
p8424
(dp8425
g5
(dp8426
sg44
I01
sbsg7
(g11
S'\x05\x00\x00\x00\x00\x00\x00\x00'
p8427
tp8428
Rp8429
(i__main__
TreeNode
p8430
(dp8431
g5
(dp8432
sg44
I00
sbsI-1
(i__main__
TreeNode
p8433
(dp8434
g5
(dp8435
sg44
I01
sbssg44
I85
sbsg7
(g11
S'\x05\x00\x00\x00\x00\x00\x00\x00'
p8436
tp8437
Rp8438
(i__main__
TreeNode
p8439
(dp8440
g5
(dp8441
g7
(g11
S'\x01\x00\x00\x00\x00\x00\x00\x00'
p8442
tp8443
Rp8444
(i__main__
TreeNode
p8445
(dp8446
g5
(dp8447
sg44
I01
sbsg7
(g11
S'\x02\x00\x00\x00\x00\x00\x00\x00'
p8448
tp8449
Rp8450
(i__main__
TreeNode
p8451
(dp8452
g5
(dp8453
sg44
I01
sbsg7
(g11
S'\x03\x00\x00\x00\x00\x00\x00\x00'
p8454
tp8455
Rp8456
(i__main__
TreeNode
p8457
(dp8458
g5
(dp8459
sg44
I01
sbsg7
(g11
S'\x04\x00\x00\x00\x00\x00\x00\x00'
p8460
tp8461
Rp8462
(i__main__
TreeNode
p8463
(dp8464
g5
(dp8465
g7
(g11
S'\x01\x00\x00\x00\x00\x00\x00\x00'
p8466
tp8467
Rp8468
(i__main__
TreeNode
p8469
(dp8470
g5
(dp8471
sg44
I00
sbsg7
(g11
S'\x04\x00\x00\x00\x00\x00\x00\x00'
p8472
tp8473
Rp8474
(i__main__
TreeNode
p8475
(dp8476
g5
(dp8477
sg44
I01
sbsI-1
(i__main__
TreeNode
p8478
(dp8479
g5
(dp8480
sg44
I00
sbssg44
I86
sbsg7
(g11
S'\x05\x00\x00\x00\x00\x00\x00\x00'
p8481
tp8482
Rp8483
(i__main__
TreeNode
p8484
(dp8485
g5
(dp8486
sg44
I01
sbsI-1
(i__main__
TreeNode
p8487
(dp8488
g5
(dp8489
sg44
I01
sbssg44
I88
sbsI-1
(i__main__
TreeNode
p8490
(dp8491
g5
(dp8492
sg44
I00
sbssg44
I84
sbsg7
(g11
S'\x02\x00\x00\x00\x00\x00\x00\x00'
p8493
tp8494
Rp8495
(i__main__
TreeNode
p8496
(dp8497
g5
(dp8498
g7
(g11
S'\x01\x00\x00\x00\x00\x00\x00\x00'
p8499
tp8500
Rp8501
(i__main__
TreeNode
p8502
(dp8503
g5
(dp8504
g7
(g11
S'\x01\x00\x00\x00\x00\x00\x00\x00'
p8505
tp8506
Rp8507
(i__main__
TreeNode
p8508
(dp8509
g5
(dp8510
sg44
I00
sbsg7
(g11
S'\x02\x00\x00\x00\x00\x00\x00\x00'
p8511
tp8512
Rp8513
(i__main__
TreeNode
p8514
(dp8515
g5
(dp8516
sg44
I00
sbsg7
(g11
S'\x03\x00\x00\x00\x00\x00\x00\x00'
p8517
tp8518
Rp8519
(i__main__
TreeNode
p8520
(dp8521
g5
(dp8522
sg44
I00
sbsg7
(g11
S'\x04\x00\x00\x00\x00\x00\x00\x00'
p8523
tp8524
Rp8525
(i__main__
TreeNode
p8526
(dp8527
g5
(dp8528
sg44
I01
sbsg7
(g11
S'\x05\x00\x00\x00\x00\x00\x00\x00'
p8529
tp8530
Rp8531
(i__main__
TreeNode
p8532
(dp8533
g5
(dp8534
sg44
I00
sbsg7
(g11
S'\x06\x00\x00\x00\x00\x00\x00\x00'
p8535
tp8536
Rp8537
(i__main__
TreeNode
p8538
(dp8539
g5
(dp8540
sg44
I00
sbsg7
(g11
S'\x07\x00\x00\x00\x00\x00\x00\x00'
p8541
tp8542
Rp8543
(i__main__
TreeNode
p8544
(dp8545
g5
(dp8546
sg44
I01
sbsI-1
(i__main__
TreeNode
p8547
(dp8548
g5
(dp8549
sg44
I00
sbssg44
I273
sbsg7
(g11
S'\x02\x00\x00\x00\x00\x00\x00\x00'
p8550
tp8551
Rp8552
(i__main__
TreeNode
p8553
(dp8554
g5
(dp8555
g7
(g11
S'\x01\x00\x00\x00\x00\x00\x00\x00'
p8556
tp8557
Rp8558
(i__main__
TreeNode
p8559
(dp8560
g5
(dp8561
sg44
I00
sbsg7
(g11
S'\x02\x00\x00\x00\x00\x00\x00\x00'
p8562
tp8563
Rp8564
(i__main__
TreeNode
p8565
(dp8566
g5
(dp8567
sg44
I00
sbsg7
(g11
S'\x03\x00\x00\x00\x00\x00\x00\x00'
p8568
tp8569
Rp8570
(i__main__
TreeNode
p8571
(dp8572
g5
(dp8573
sg44
I01
sbsg7
(g11
S'\x04\x00\x00\x00\x00\x00\x00\x00'
p8574
tp8575
Rp8576
(i__main__
TreeNode
p8577
(dp8578
g5
(dp8579
sg44
I00
sbsI-1
(i__main__
TreeNode
p8580
(dp8581
g5
(dp8582
sg44
I00
sbssg44
I268
sbsg7
(g11
S'\x03\x00\x00\x00\x00\x00\x00\x00'
p8583
tp8584
Rp8585
(i__main__
TreeNode
p8586
(dp8587
g5
(dp8588
sg44
I00
sbsg7
(g11
S'\x04\x00\x00\x00\x00\x00\x00\x00'
p8589
tp8590
Rp8591
(i__main__
TreeNode
p8592
(dp8593
g5
(dp8594
sg44
I00
sbsg7
(g11
S'\x05\x00\x00\x00\x00\x00\x00\x00'
p8595
tp8596
Rp8597
(i__main__
TreeNode
p8598
(dp8599
g5
(dp8600
sg44
I01
sbsI-1
(i__main__
TreeNode
p8601
(dp8602
g5
(dp8603
sg44
I00
sbssg44
I129
sbsI-1
(i__main__
TreeNode
p8604
(dp8605
g5
(dp8606
sg44
I00
sbssg44
I174
sbsg7
(g11
S'\x05\x00\x00\x00\x00\x00\x00\x00'
p8607
tp8608
Rp8609
(i__main__
TreeNode
p8610
(dp8611
g5
(dp8612
sg44
I00
sbsI-1
(i__main__
TreeNode
p8613
(dp8614
g5
(dp8615
sg44
I00
sbssg44
I163
sbsg7
(g11
S'\x02\x00\x00\x00\x00\x00\x00\x00'
p8616
tp8617
Rp8618
(i__main__
TreeNode
p8619
(dp8620
g5
(dp8621
sg44
I01
sbsg7
(g11
S'\x03\x00\x00\x00\x00\x00\x00\x00'
p8622
tp8623
Rp8624
(i__main__
TreeNode
p8625
(dp8626
g5
(dp8627
g7
(g11
S'\x01\x00\x00\x00\x00\x00\x00\x00'
p8628
tp8629
Rp8630
(i__main__
TreeNode
p8631
(dp8632
g5
(dp8633
sg44
I00
sbsg7
(g11
S'\x02\x00\x00\x00\x00\x00\x00\x00'
p8634
tp8635
Rp8636
(i__main__
TreeNode
p8637
(dp8638
g5
(dp8639
sg44
I00
sbsg7
(g11
S'\x03\x00\x00\x00\x00\x00\x00\x00'
p8640
tp8641
Rp8642
(i__main__
TreeNode
p8643
(dp8644
g5
(dp8645
sg44
I00
sbsg7
(g11
S'\x04\x00\x00\x00\x00\x00\x00\x00'
p8646
tp8647
Rp8648
(i__main__
TreeNode
p8649
(dp8650
g5
(dp8651
sg44
I00
sbsg7
(g11
S'\x05\x00\x00\x00\x00\x00\x00\x00'
p8652
tp8653
Rp8654
(i__main__
TreeNode
p8655
(dp8656
g5
(dp8657
sg44
I01
sbsI-1
(i__main__
TreeNode
p8658
(dp8659
g5
(dp8660
sg44
I00
sbssg44
I129
sbsg7
(g11
S'\x04\x00\x00\x00\x00\x00\x00\x00'
p8661
tp8662
Rp8663
(i__main__
TreeNode
p8664
(dp8665
g5
(dp8666
g7
(g11
S'\x01\x00\x00\x00\x00\x00\x00\x00'
p8667
tp8668
Rp8669
(i__main__
TreeNode
p8670
(dp8671
g5
(dp8672
g7
(g11
S'\x01\x00\x00\x00\x00\x00\x00\x00'
p8673
tp8674
Rp8675
(i__main__
TreeNode
p8676
(dp8677
g5
(dp8678
sg44
I00
sbsg7
(g11
S'\x02\x00\x00\x00\x00\x00\x00\x00'
p8679
tp8680
Rp8681
(i__main__
TreeNode
p8682
(dp8683
g5
(dp8684
g7
(g11
S'\x01\x00\x00\x00\x00\x00\x00\x00'
p8685
tp8686
Rp8687
(i__main__
TreeNode
p8688
(dp8689
g5
(dp8690
sg44
I00
sbsg7
(g11
S'\x02\x00\x00\x00\x00\x00\x00\x00'
p8691
tp8692
Rp8693
(i__main__
TreeNode
p8694
(dp8695
g5
(dp8696
g7
(g11
S'\x01\x00\x00\x00\x00\x00\x00\x00'
p8697
tp8698
Rp8699
(i__main__
TreeNode
p8700
(dp8701
g5
(dp8702
sg44
I00
sbsg7
(g11
S'\x02\x00\x00\x00\x00\x00\x00\x00'
p8703
tp8704
Rp8705
(i__main__
TreeNode
p8706
(dp8707
g5
(dp8708
sg44
I01
sbsg7
(g11
S'\x03\x00\x00\x00\x00\x00\x00\x00'
p8709
tp8710
Rp8711
(i__main__
TreeNode
p8712
(dp8713
g5
(dp8714
sg44
I00
sbsg7
(g11
S'\x04\x00\x00\x00\x00\x00\x00\x00'
p8715
tp8716
Rp8717
(i__main__
TreeNode
p8718
(dp8719
g5
(dp8720
sg44
I00
sbsg7
(g11
S'\x05\x00\x00\x00\x00\x00\x00\x00'
p8721
tp8722
Rp8723
(i__main__
TreeNode
p8724
(dp8725
g5
(dp8726
sg44
I00
sbsI-1
(i__main__
TreeNode
p8727
(dp8728
g5
(dp8729
sg44
I00
sbssg44
I88
sbsg7
(g11
S'\x03\x00\x00\x00\x00\x00\x00\x00'
p8730
tp8731
Rp8732
(i__main__
TreeNode
p8733
(dp8734
g5
(dp8735
sg44
I00
sbsg7
(g11
S'\x04\x00\x00\x00\x00\x00\x00\x00'
p8736
tp8737
Rp8738
(i__main__
TreeNode
p8739
(dp8740
g5
(dp8741
sg44
I00
sbsg7
(g11
S'\x05\x00\x00\x00\x00\x00\x00\x00'
p8742
tp8743
Rp8744
(i__main__
TreeNode
p8745
(dp8746
g5
(dp8747
sg44
I01
sbsI-1
(i__main__
TreeNode
p8748
(dp8749
g5
(dp8750
sg44
I00
sbssg44
I129
sbsg7
(g11
S'\x03\x00\x00\x00\x00\x00\x00\x00'
p8751
tp8752
Rp8753
(i__main__
TreeNode
p8754
(dp8755
g5
(dp8756
sg44
I00
sbsg7
(g11
S'\x04\x00\x00\x00\x00\x00\x00\x00'
p8757
tp8758
Rp8759
(i__main__
TreeNode
p8760
(dp8761
g5
(dp8762
g7
(g11
S'\x01\x00\x00\x00\x00\x00\x00\x00'
p8763
tp8764
Rp8765
(i__main__
TreeNode
p8766
(dp8767
g5
(dp8768
sg44
I01
sbsg7
(g11
S'\x02\x00\x00\x00\x00\x00\x00\x00'
p8769
tp8770
Rp8771
(i__main__
TreeNode
p8772
(dp8773
g5
(dp8774
sg44
I00
sbsg7
(g11
S'\x06\x00\x00\x00\x00\x00\x00\x00'
p8775
tp8776
Rp8777
(i__main__
TreeNode
p8778
(dp8779
g5
(dp8780
sg44
I00
sbsI-1
(i__main__
TreeNode
p8781
(dp8782
g5
(dp8783
sg44
I00
sbsg7
(g11
S'\x05\x00\x00\x00\x00\x00\x00\x00'
p8784
tp8785
Rp8786
(i__main__
TreeNode
p8787
(dp8788
g5
(dp8789
sg44
I00
sbssg44
I267
sbsg7
(g11
S'\x05\x00\x00\x00\x00\x00\x00\x00'
p8790
tp8791
Rp8792
(i__main__
TreeNode
p8793
(dp8794
g5
(dp8795
sg44
I00
sbsI-1
(i__main__
TreeNode
p8796
(dp8797
g5
(dp8798
sg44
I00
sbssg44
I81
sbsg7
(g11
S'\x04\x00\x00\x00\x00\x00\x00\x00'
p8799
tp8800
Rp8801
(i__main__
TreeNode
p8802
(dp8803
g5
(dp8804
sg44
I01
sbsg7
(g11
S'\x06\x00\x00\x00\x00\x00\x00\x00'
p8805
tp8806
Rp8807
(i__main__
TreeNode
p8808
(dp8809
g5
(dp8810
sg44
I00
sbsg7
(g11
S'\x07\x00\x00\x00\x00\x00\x00\x00'
p8811
tp8812
Rp8813
(i__main__
TreeNode
p8814
(dp8815
g5
(dp8816
sg44
I00
sbsg7
(g11
S'\x08\x00\x00\x00\x00\x00\x00\x00'
p8817
tp8818
Rp8819
(i__main__
TreeNode
p8820
(dp8821
g5
(dp8822
sg44
I01
sbsg7
(g11
S'\t\x00\x00\x00\x00\x00\x00\x00'
p8823
tp8824
Rp8825
(i__main__
TreeNode
p8826
(dp8827
g5
(dp8828
sg44
I00
sbsg7
(g11
S'\n\x00\x00\x00\x00\x00\x00\x00'
p8829
tp8830
Rp8831
(i__main__
TreeNode
p8832
(dp8833
g5
(dp8834
sg44
I01
sbsg7
(g11
S'\x0b\x00\x00\x00\x00\x00\x00\x00'
p8835
tp8836
Rp8837
(i__main__
TreeNode
p8838
(dp8839
g5
(dp8840
g7
(g11
S'\x01\x00\x00\x00\x00\x00\x00\x00'
p8841
tp8842
Rp8843
(i__main__
TreeNode
p8844
(dp8845
g5
(dp8846
sg44
I00
sbsg7
(g11
S'\x02\x00\x00\x00\x00\x00\x00\x00'
p8847
tp8848
Rp8849
(i__main__
TreeNode
p8850
(dp8851
g5
(dp8852
sg44
I00
sbsg7
(g11
S'\x03\x00\x00\x00\x00\x00\x00\x00'
p8853
tp8854
Rp8855
(i__main__
TreeNode
p8856
(dp8857
g5
(dp8858
sg44
I01
sbsg7
(g11
S'\x04\x00\x00\x00\x00\x00\x00\x00'
p8859
tp8860
Rp8861
(i__main__
TreeNode
p8862
(dp8863
g5
(dp8864
sg44
I00
sbsg7
(g11
S'\x05\x00\x00\x00\x00\x00\x00\x00'
p8865
tp8866
Rp8867
(i__main__
TreeNode
p8868
(dp8869
g5
(dp8870
sg44
I00
sbsI-1
(i__main__
TreeNode
p8871
(dp8872
g5
(dp8873
sg44
I00
sbssg44
I129
sbsg7
(g11
S'\x0c\x00\x00\x00\x00\x00\x00\x00'
p8874
tp8875
Rp8876
(i__main__
TreeNode
p8877
(dp8878
g5
(dp8879
g7
(g11
S'\x01\x00\x00\x00\x00\x00\x00\x00'
p8880
tp8881
Rp8882
(i__main__
TreeNode
p8883
(dp8884
g5
(dp8885
sg44
I00
sbsg7
(g11
S'\x02\x00\x00\x00\x00\x00\x00\x00'
p8886
tp8887
Rp8888
(i__main__
TreeNode
p8889
(dp8890
g5
(dp8891
sg44
I01
sbsg7
(g11
S'\x03\x00\x00\x00\x00\x00\x00\x00'
p8892
tp8893
Rp8894
(i__main__
TreeNode
p8895
(dp8896
g5
(dp8897
sg44
I01
sbsg7
(g11
S'\x04\x00\x00\x00\x00\x00\x00\x00'
p8898
tp8899
Rp8900
(i__main__
TreeNode
p8901
(dp8902
g5
(dp8903
sg44
I01
sbsg7
(g11
S'\x05\x00\x00\x00\x00\x00\x00\x00'
p8904
tp8905
Rp8906
(i__main__
TreeNode
p8907
(dp8908
g5
(dp8909
sg44
I00
sbsI-1
(i__main__
TreeNode
p8910
(dp8911
g5
(dp8912
sg44
I00
sbssg44
I81
sbsI-1
(i__main__
TreeNode
p8913
(dp8914
g5
(dp8915
sg44
I00
sbssg44
I263
sbsg7
(g11
S'\x05\x00\x00\x00\x00\x00\x00\x00'
p8916
tp8917
Rp8918
(i__main__
TreeNode
p8919
(dp8920
g5
(dp8921
g7
(g11
S'\x01\x00\x00\x00\x00\x00\x00\x00'
p8922
tp8923
Rp8924
(i__main__
TreeNode
p8925
(dp8926
g5
(dp8927
sg44
I01
sbsg7
(g11
S'\x02\x00\x00\x00\x00\x00\x00\x00'
p8928
tp8929
Rp8930
(i__main__
TreeNode
p8931
(dp8932
g5
(dp8933
sg44
I00
sbsg7
(g11
S'\x03\x00\x00\x00\x00\x00\x00\x00'
p8934
tp8935
Rp8936
(i__main__
TreeNode
p8937
(dp8938
g5
(dp8939
sg44
I01
sbsg7
(g11
S'\x04\x00\x00\x00\x00\x00\x00\x00'
p8940
tp8941
Rp8942
(i__main__
TreeNode
p8943
(dp8944
g5
(dp8945
sg44
I01
sbsg7
(g11
S'\x05\x00\x00\x00\x00\x00\x00\x00'
p8946
tp8947
Rp8948
(i__main__
TreeNode
p8949
(dp8950
g5
(dp8951
sg44
I00
sbsg7
(g11
S'\x07\x00\x00\x00\x00\x00\x00\x00'
p8952
tp8953
Rp8954
(i__main__
TreeNode
p8955
(dp8956
g5
(dp8957
sg44
I00
sbsI-1
(i__main__
TreeNode
p8958
(dp8959
g5
(dp8960
sg44
I00
sbssg44
I273
sbsg7
(g11
S'\x06\x00\x00\x00\x00\x00\x00\x00'
p8961
tp8962
Rp8963
(i__main__
TreeNode
p8964
(dp8965
g5
(dp8966
g7
(g11
S'\x01\x00\x00\x00\x00\x00\x00\x00'
p8967
tp8968
Rp8969
(i__main__
TreeNode
p8970
(dp8971
g5
(dp8972
sg44
I00
sbsg7
(g11
S'\x02\x00\x00\x00\x00\x00\x00\x00'
p8973
tp8974
Rp8975
(i__main__
TreeNode
p8976
(dp8977
g5
(dp8978
sg44
I01
sbsI-1
(i__main__
TreeNode
p8979
(dp8980
g5
(dp8981
sg44
I00
sbssg44
I174
sbsI-1
(i__main__
TreeNode
p8982
(dp8983
g5
(dp8984
sg44
I00
sbssg44
I272
sbsg7
(g11
S'\x02\x00\x00\x00\x00\x00\x00\x00'
p8985
tp8986
Rp8987
(i__main__
TreeNode
p8988
(dp8989
g5
(dp8990
sg44
I01
sbsg7
(g11
S'\x03\x00\x00\x00\x00\x00\x00\x00'
p8991
tp8992
Rp8993
(i__main__
TreeNode
p8994
(dp8995
g5
(dp8996
sg44
I01
sbsI-1
(i__main__
TreeNode
p8997
(dp8998
g5
(dp8999
sg44
I00
sbssg44
I11
sbsg7
(g11
S'\x02\x00\x00\x00\x00\x00\x00\x00'
p9000
tp9001
Rp9002
(i__main__
TreeNode
p9003
(dp9004
g5
(dp9005
sg44
I00
sbsg7
(g11
S'\x03\x00\x00\x00\x00\x00\x00\x00'
p9006
tp9007
Rp9008
(i__main__
TreeNode
p9009
(dp9010
g5
(dp9011
sg44
I00
sbsg7
(g11
S'\x04\x00\x00\x00\x00\x00\x00\x00'
p9012
tp9013
Rp9014
(i__main__
TreeNode
p9015
(dp9016
g5
(dp9017
g7
(g11
S'\x12\x00\x00\x00\x00\x00\x00\x00'
p9018
tp9019
Rp9020
(i__main__
TreeNode
p9021
(dp9022
g5
(dp9023
sg44
I01
sbsg7
(g11
S'\x03\x00\x00\x00\x00\x00\x00\x00'
p9024
tp9025
Rp9026
(i__main__
TreeNode
p9027
(dp9028
g5
(dp9029
g7
(g11
S'\x01\x00\x00\x00\x00\x00\x00\x00'
p9030
tp9031
Rp9032
(i__main__
TreeNode
p9033
(dp9034
g5
(dp9035
g7
(g11
S'\x01\x00\x00\x00\x00\x00\x00\x00'
p9036
tp9037
Rp9038
(i__main__
TreeNode
p9039
(dp9040
g5
(dp9041
sg44
I00
sbsg7
(g11
S'\x02\x00\x00\x00\x00\x00\x00\x00'
p9042
tp9043
Rp9044
(i__main__
TreeNode
p9045
(dp9046
g5
(dp9047
sg44
I01
sbsg7
(g11
S'\x03\x00\x00\x00\x00\x00\x00\x00'
p9048
tp9049
Rp9050
(i__main__
TreeNode
p9051
(dp9052
g5
(dp9053
g7
(g11
S'\x02\x00\x00\x00\x00\x00\x00\x00'
p9054
tp9055
Rp9056
(i__main__
TreeNode
p9057
(dp9058
g5
(dp9059
g7
(g11
S'\x01\x00\x00\x00\x00\x00\x00\x00'
p9060
tp9061
Rp9062
(i__main__
TreeNode
p9063
(dp9064
g5
(dp9065
sg44
I01
sbsg7
(g11
S'\x02\x00\x00\x00\x00\x00\x00\x00'
p9066
tp9067
Rp9068
(i__main__
TreeNode
p9069
(dp9070
g5
(dp9071
sg44
I01
sbsg7
(g11
S'\x04\x00\x00\x00\x00\x00\x00\x00'
p9072
tp9073
Rp9074
(i__main__
TreeNode
p9075
(dp9076
g5
(dp9077
sg44
I01
sbsg7
(g11
S'\x05\x00\x00\x00\x00\x00\x00\x00'
p9078
tp9079
Rp9080
(i__main__
TreeNode
p9081
(dp9082
g5
(dp9083
sg44
I00
sbsI-1
(i__main__
TreeNode
p9084
(dp9085
g5
(dp9086
sg44
I01
sbssg44
I84
sbsg7
(g11
S'\x03\x00\x00\x00\x00\x00\x00\x00'
p9087
tp9088
Rp9089
(i__main__
TreeNode
p9090
(dp9091
g5
(dp9092
sg44
I00
sbsg7
(g11
S'\x04\x00\x00\x00\x00\x00\x00\x00'
p9093
tp9094
Rp9095
(i__main__
TreeNode
p9096
(dp9097
g5
(dp9098
g7
(g11
S'\x01\x00\x00\x00\x00\x00\x00\x00'
p9099
tp9100
Rp9101
(i__main__
TreeNode
p9102
(dp9103
g5
(dp9104
sg44
I00
sbsg7
(g11
S'\x03\x00\x00\x00\x00\x00\x00\x00'
p9105
tp9106
Rp9107
(i__main__
TreeNode
p9108
(dp9109
g5
(dp9110
g7
(g11
S'\x01\x00\x00\x00\x00\x00\x00\x00'
p9111
tp9112
Rp9113
(i__main__
TreeNode
p9114
(dp9115
g5
(dp9116
sg44
I00
sbsg7
(g11
S'\x02\x00\x00\x00\x00\x00\x00\x00'
p9117
tp9118
Rp9119
(i__main__
TreeNode
p9120
(dp9121
g5
(dp9122
sg44
I01
sbsI-1
(i__main__
TreeNode
p9123
(dp9124
g5
(dp9125
sg44
I00
sbssg44
I84
sbsg7
(g11
S'\x04\x00\x00\x00\x00\x00\x00\x00'
p9126
tp9127
Rp9128
(i__main__
TreeNode
p9129
(dp9130
g5
(dp9131
sg44
I01
sbsI-1
(i__main__
TreeNode
p9132
(dp9133
g5
(dp9134
sg44
I00
sbssg44
I81
sbsg7
(g11
S'\x05\x00\x00\x00\x00\x00\x00\x00'
p9135
tp9136
Rp9137
(i__main__
TreeNode
p9138
(dp9139
g5
(dp9140
sg44
I01
sbsI-1
(i__main__
TreeNode
p9141
(dp9142
g5
(dp9143
sg44
I01
sbssg44
I85
sbsg7
(g11
S'\x04\x00\x00\x00\x00\x00\x00\x00'
p9144
tp9145
Rp9146
(i__main__
TreeNode
p9147
(dp9148
g5
(dp9149
g7
(g11
S'\x01\x00\x00\x00\x00\x00\x00\x00'
p9150
tp9151
Rp9152
(i__main__
TreeNode
p9153
(dp9154
g5
(dp9155
sg44
I00
sbsg7
(g11
S'\x02\x00\x00\x00\x00\x00\x00\x00'
p9156
tp9157
Rp9158
(i__main__
TreeNode
p9159
(dp9160
g5
(dp9161
sg44
I01
sbsg7
(g11
S'\x03\x00\x00\x00\x00\x00\x00\x00'
p9162
tp9163
Rp9164
(i__main__
TreeNode
p9165
(dp9166
g5
(dp9167
sg44
I00
sbsg7
(g11
S'\x04\x00\x00\x00\x00\x00\x00\x00'
p9168
tp9169
Rp9170
(i__main__
TreeNode
p9171
(dp9172
g5
(dp9173
sg44
I00
sbsg7
(g11
S'\x05\x00\x00\x00\x00\x00\x00\x00'
p9174
tp9175
Rp9176
(i__main__
TreeNode
p9177
(dp9178
g5
(dp9179
g7
(g11
S'\x01\x00\x00\x00\x00\x00\x00\x00'
p9180
tp9181
Rp9182
(i__main__
TreeNode
p9183
(dp9184
g5
(dp9185
sg44
I00
sbsg7
(g11
S'\x02\x00\x00\x00\x00\x00\x00\x00'
p9186
tp9187
Rp9188
(i__main__
TreeNode
p9189
(dp9190
g5
(dp9191
sg44
I00
sbsg7
(g11
S'\x03\x00\x00\x00\x00\x00\x00\x00'
p9192
tp9193
Rp9194
(i__main__
TreeNode
p9195
(dp9196
g5
(dp9197
sg44
I01
sbsg7
(g11
S'\x04\x00\x00\x00\x00\x00\x00\x00'
p9198
tp9199
Rp9200
(i__main__
TreeNode
p9201
(dp9202
g5
(dp9203
sg44
I01
sbsg7
(g11
S'\x05\x00\x00\x00\x00\x00\x00\x00'
p9204
tp9205
Rp9206
(i__main__
TreeNode
p9207
(dp9208
g5
(dp9209
sg44
I01
sbsI-1
(i__main__
TreeNode
p9210
(dp9211
g5
(dp9212
sg44
I01
sbssg44
I85
sbsg7
(g11
S'\x06\x00\x00\x00\x00\x00\x00\x00'
p9213
tp9214
Rp9215
(i__main__
TreeNode
p9216
(dp9217
g5
(dp9218
sg44
I01
sbsg7
(g11
S'\x07\x00\x00\x00\x00\x00\x00\x00'
p9219
tp9220
Rp9221
(i__main__
TreeNode
p9222
(dp9223
g5
(dp9224
sg44
I00
sbsI-1
(i__main__
TreeNode
p9225
(dp9226
g5
(dp9227
sg44
I00
sbssg44
I273
sbsg7
(g11
S'\x05\x00\x00\x00\x00\x00\x00\x00'
p9228
tp9229
Rp9230
(i__main__
TreeNode
p9231
(dp9232
g5
(dp9233
sg44
I01
sbsI-1
(i__main__
TreeNode
p9234
(dp9235
g5
(dp9236
sg44
I01
sbssg44
I82
sbsg7
(g11
S'\x02\x00\x00\x00\x00\x00\x00\x00'
p9237
tp9238
Rp9239
(i__main__
TreeNode
p9240
(dp9241
g5
(dp9242
g7
(g11
S'\x01\x00\x00\x00\x00\x00\x00\x00'
p9243
tp9244
Rp9245
(i__main__
TreeNode
p9246
(dp9247
g5
(dp9248
sg44
I00
sbsg7
(g11
S'\x02\x00\x00\x00\x00\x00\x00\x00'
p9249
tp9250
Rp9251
(i__main__
TreeNode
p9252
(dp9253
g5
(dp9254
sg44
I00
sbsg7
(g11
S'\x03\x00\x00\x00\x00\x00\x00\x00'
p9255
tp9256
Rp9257
(i__main__
TreeNode
p9258
(dp9259
g5
(dp9260
sg44
I01
sbsg7
(g11
S'\x04\x00\x00\x00\x00\x00\x00\x00'
p9261
tp9262
Rp9263
(i__main__
TreeNode
p9264
(dp9265
g5
(dp9266
sg44
I01
sbsg7
(g11
S'\x06\x00\x00\x00\x00\x00\x00\x00'
p9267
tp9268
Rp9269
(i__main__
TreeNode
p9270
(dp9271
g5
(dp9272
sg44
I01
sbsI-1
(i__main__
TreeNode
p9273
(dp9274
g5
(dp9275
sg44
I00
sbssg44
I87
sbsg7
(g11
S'\x03\x00\x00\x00\x00\x00\x00\x00'
p9276
tp9277
Rp9278
(i__main__
TreeNode
p9279
(dp9280
g5
(dp9281
g7
(g11
S'\x01\x00\x00\x00\x00\x00\x00\x00'
p9282
tp9283
Rp9284
(i__main__
TreeNode
p9285
(dp9286
g5
(dp9287
sg44
I01
sbsg7
(g11
S'\x02\x00\x00\x00\x00\x00\x00\x00'
p9288
tp9289
Rp9290
(i__main__
TreeNode
p9291
(dp9292
g5
(dp9293
sg44
I00
sbsg7
(g11
S'\x03\x00\x00\x00\x00\x00\x00\x00'
p9294
tp9295
Rp9296
(i__main__
TreeNode
p9297
(dp9298
g5
(dp9299
sg44
I01
sbsg7
(g11
S'\x04\x00\x00\x00\x00\x00\x00\x00'
p9300
tp9301
Rp9302
(i__main__
TreeNode
p9303
(dp9304
g5
(dp9305
sg44
I00
sbsg7
(g11
S'\x05\x00\x00\x00\x00\x00\x00\x00'
p9306
tp9307
Rp9308
(i__main__
TreeNode
p9309
(dp9310
g5
(dp9311
sg44
I00
sbsI-1
(i__main__
TreeNode
p9312
(dp9313
g5
(dp9314
sg44
I00
sbssg44
I88
sbsg7
(g11
S'\x05\x00\x00\x00\x00\x00\x00\x00'
p9315
tp9316
Rp9317
(i__main__
TreeNode
p9318
(dp9319
g5
(dp9320
sg44
I01
sbsg7
(g11
S'\x06\x00\x00\x00\x00\x00\x00\x00'
p9321
tp9322
Rp9323
(i__main__
TreeNode
p9324
(dp9325
g5
(dp9326
sg44
I01
sbsI-1
(i__main__
TreeNode
p9327
(dp9328
g5
(dp9329
sg44
I01
sbssg44
I270
sbsg7
(g11
S'\r\x00\x00\x00\x00\x00\x00\x00'
p9330
tp9331
Rp9332
(i__main__
TreeNode
p9333
(dp9334
g5
(dp9335
sg44
I00
sbsI-1
(i__main__
TreeNode
p9336
(dp9337
g5
(dp9338
sg44
I00
sbsg7
(g11
S'\x05\x00\x00\x00\x00\x00\x00\x00'
p9339
tp9340
Rp9341
(i__main__
TreeNode
p9342
(dp9343
g5
(dp9344
g7
(g11
S'\x01\x00\x00\x00\x00\x00\x00\x00'
p9345
tp9346
Rp9347
(i__main__
TreeNode
p9348
(dp9349
g5
(dp9350
g7
(g11
S'\x01\x00\x00\x00\x00\x00\x00\x00'
p9351
tp9352
Rp9353
(i__main__
TreeNode
p9354
(dp9355
g5
(dp9356
sg44
I01
sbsg7
(g11
S'\x02\x00\x00\x00\x00\x00\x00\x00'
p9357
tp9358
Rp9359
(i__main__
TreeNode
p9360
(dp9361
g5
(dp9362
sg44
I00
sbsg7
(g11
S'\x03\x00\x00\x00\x00\x00\x00\x00'
p9363
tp9364
Rp9365
(i__main__
TreeNode
p9366
(dp9367
g5
(dp9368
sg44
I01
sbsg7
(g11
S'\x05\x00\x00\x00\x00\x00\x00\x00'
p9369
tp9370
Rp9371
(i__main__
TreeNode
p9372
(dp9373
g5
(dp9374
sg44
I01
sbsg7
(g11
S'\x06\x00\x00\x00\x00\x00\x00\x00'
p9375
tp9376
Rp9377
(i__main__
TreeNode
p9378
(dp9379
g5
(dp9380
sg44
I00
sbsI-1
(i__main__
TreeNode
p9381
(dp9382
g5
(dp9383
sg44
I01
sbssg44
I273
sbsg7
(g11
S'\x02\x00\x00\x00\x00\x00\x00\x00'
p9384
tp9385
Rp9386
(i__main__
TreeNode
p9387
(dp9388
g5
(dp9389
sg44
I01
sbsg7
(g11
S'\x03\x00\x00\x00\x00\x00\x00\x00'
p9390
tp9391
Rp9392
(i__main__
TreeNode
p9393
(dp9394
g5
(dp9395
sg44
I00
sbsg7
(g11
S'\x04\x00\x00\x00\x00\x00\x00\x00'
p9396
tp9397
Rp9398
(i__main__
TreeNode
p9399
(dp9400
g5
(dp9401
sg44
I00
sbsg7
(g11
S'\x05\x00\x00\x00\x00\x00\x00\x00'
p9402
tp9403
Rp9404
(i__main__
TreeNode
p9405
(dp9406
g5
(dp9407
sg44
I00
sbsI-1
(i__main__
TreeNode
p9408
(dp9409
g5
(dp9410
sg44
I01
sbssg44
I82
sbssg44
I263
sbsg7
(g11
S'\x05\x00\x00\x00\x00\x00\x00\x00'
p9411
tp9412
Rp9413
(i__main__
TreeNode
p9414
(dp9415
g5
(dp9416
g7
(g11
S'\x01\x00\x00\x00\x00\x00\x00\x00'
p9417
tp9418
Rp9419
(i__main__
TreeNode
p9420
(dp9421
g5
(dp9422
g7
(g11
S'\x01\x00\x00\x00\x00\x00\x00\x00'
p9423
tp9424
Rp9425
(i__main__
TreeNode
p9426
(dp9427
g5
(dp9428
g7
(g11
S'\x02\x00\x00\x00\x00\x00\x00\x00'
p9429
tp9430
Rp9431
(i__main__
TreeNode
p9432
(dp9433
g5
(dp9434
sg44
I00
sbsg7
(g11
S'\x04\x00\x00\x00\x00\x00\x00\x00'
p9435
tp9436
Rp9437
(i__main__
TreeNode
p9438
(dp9439
g5
(dp9440
sg44
I01
sbsI-1
(i__main__
TreeNode
p9441
(dp9442
g5
(dp9443
sg44
I00
sbssg44
I128
sbsg7
(g11
S'\x02\x00\x00\x00\x00\x00\x00\x00'
p9444
tp9445
Rp9446
(i__main__
TreeNode
p9447
(dp9448
g5
(dp9449
sg44
I00
sbsg7
(g11
S'\x03\x00\x00\x00\x00\x00\x00\x00'
p9450
tp9451
Rp9452
(i__main__
TreeNode
p9453
(dp9454
g5
(dp9455
sg44
I00
sbsg7
(g11
S'\x04\x00\x00\x00\x00\x00\x00\x00'
p9456
tp9457
Rp9458
(i__main__
TreeNode
p9459
(dp9460
g5
(dp9461
g7
(g11
S'\x03\x00\x00\x00\x00\x00\x00\x00'
p9462
tp9463
Rp9464
(i__main__
TreeNode
p9465
(dp9466
g5
(dp9467
sg44
I00
sbsg7
(g11
S'\x04\x00\x00\x00\x00\x00\x00\x00'
p9468
tp9469
Rp9470
(i__main__
TreeNode
p9471
(dp9472
g5
(dp9473
sg44
I00
sbsg7
(g11
S'\x05\x00\x00\x00\x00\x00\x00\x00'
p9474
tp9475
Rp9476
(i__main__
TreeNode
p9477
(dp9478
g5
(dp9479
sg44
I01
sbsI-1
(i__main__
TreeNode
p9480
(dp9481
g5
(dp9482
sg44
I00
sbssg44
I129
sbsg7
(g11
S'\x05\x00\x00\x00\x00\x00\x00\x00'
p9483
tp9484
Rp9485
(i__main__
TreeNode
p9486
(dp9487
g5
(dp9488
sg44
I00
sbsg7
(g11
S'\x06\x00\x00\x00\x00\x00\x00\x00'
p9489
tp9490
Rp9491
(i__main__
TreeNode
p9492
(dp9493
g5
(dp9494
sg44
I01
sbsg7
(g11
S'\x07\x00\x00\x00\x00\x00\x00\x00'
p9495
tp9496
Rp9497
(i__main__
TreeNode
p9498
(dp9499
g5
(dp9500
g7
(g11
S'\x02\x00\x00\x00\x00\x00\x00\x00'
p9501
tp9502
Rp9503
(i__main__
TreeNode
p9504
(dp9505
g5
(dp9506
sg44
I01
sbsg7
(g11
S'\x03\x00\x00\x00\x00\x00\x00\x00'
p9507
tp9508
Rp9509
(i__main__
TreeNode
p9510
(dp9511
g5
(dp9512
sg44
I00
sbsg7
(g11
S'\x04\x00\x00\x00\x00\x00\x00\x00'
p9513
tp9514
Rp9515
(i__main__
TreeNode
p9516
(dp9517
g5
(dp9518
sg44
I00
sbsg7
(g11
S'\x05\x00\x00\x00\x00\x00\x00\x00'
p9519
tp9520
Rp9521
(i__main__
TreeNode
p9522
(dp9523
g5
(dp9524
sg44
I00
sbsI-1
(i__main__
TreeNode
p9525
(dp9526
g5
(dp9527
sg44
I00
sbssg44
I85
sbsI-1
(i__main__
TreeNode
p9528
(dp9529
g5
(dp9530
sg44
I00
sbssg44
I273
sbsg7
(g11
S'\x02\x00\x00\x00\x00\x00\x00\x00'
p9531
tp9532
Rp9533
(i__main__
TreeNode
p9534
(dp9535
g5
(dp9536
g7
(g11
S'\x01\x00\x00\x00\x00\x00\x00\x00'
p9537
tp9538
Rp9539
(i__main__
TreeNode
p9540
(dp9541
g5
(dp9542
sg44
I00
sbsg7
(g11
S'\x02\x00\x00\x00\x00\x00\x00\x00'
p9543
tp9544
Rp9545
(i__main__
TreeNode
p9546
(dp9547
g5
(dp9548
sg44
I00
sbsg7
(g11
S'\x03\x00\x00\x00\x00\x00\x00\x00'
p9549
tp9550
Rp9551
(i__main__
TreeNode
p9552
(dp9553
g5
(dp9554
g7
(g11
S'\x01\x00\x00\x00\x00\x00\x00\x00'
p9555
tp9556
Rp9557
(i__main__
TreeNode
p9558
(dp9559
g5
(dp9560
g7
(g11
S'\x01\x00\x00\x00\x00\x00\x00\x00'
p9561
tp9562
Rp9563
(i__main__
TreeNode
p9564
(dp9565
g5
(dp9566
sg44
I01
sbsg7
(g11
S'\x03\x00\x00\x00\x00\x00\x00\x00'
p9567
tp9568
Rp9569
(i__main__
TreeNode
p9570
(dp9571
g5
(dp9572
sg44
I00
sbsI-1
(i__main__
TreeNode
p9573
(dp9574
g5
(dp9575
sg44
I00
sbssg44
I184
sbsg7
(g11
S'\x02\x00\x00\x00\x00\x00\x00\x00'
p9576
tp9577
Rp9578
(i__main__
TreeNode
p9579
(dp9580
g5
(dp9581
g7
(g11
S'\x02\x00\x00\x00\x00\x00\x00\x00'
p9582
tp9583
Rp9584
(i__main__
TreeNode
p9585
(dp9586
g5
(dp9587
sg44
I01
sbsg7
(g11
S'\x04\x00\x00\x00\x00\x00\x00\x00'
p9588
tp9589
Rp9590
(i__main__
TreeNode
p9591
(dp9592
g5
(dp9593
sg44
I00
sbsI-1
(i__main__
TreeNode
p9594
(dp9595
g5
(dp9596
sg44
I01
sbssg44
I128
sbsg7
(g11
S'\x03\x00\x00\x00\x00\x00\x00\x00'
p9597
tp9598
Rp9599
(i__main__
TreeNode
p9600
(dp9601
g5
(dp9602
sg44
I01
sbsg7
(g11
S'\x04\x00\x00\x00\x00\x00\x00\x00'
p9603
tp9604
Rp9605
(i__main__
TreeNode
p9606
(dp9607
g5
(dp9608
sg44
I00
sbsI-1
(i__main__
TreeNode
p9609
(dp9610
g5
(dp9611
sg44
I00
sbssg44
I81
sbsg7
(g11
S'\x04\x00\x00\x00\x00\x00\x00\x00'
p9612
tp9613
Rp9614
(i__main__
TreeNode
p9615
(dp9616
g5
(dp9617
sg44
I00
sbsg7
(g11
S'\x05\x00\x00\x00\x00\x00\x00\x00'
p9618
tp9619
Rp9620
(i__main__
TreeNode
p9621
(dp9622
g5
(dp9623
g7
(g11
S'\x01\x00\x00\x00\x00\x00\x00\x00'
p9624
tp9625
Rp9626
(i__main__
TreeNode
p9627
(dp9628
g5
(dp9629
sg44
I00
sbsg7
(g11
S'\x02\x00\x00\x00\x00\x00\x00\x00'
p9630
tp9631
Rp9632
(i__main__
TreeNode
p9633
(dp9634
g5
(dp9635
sg44
I00
sbsg7
(g11
S'\x03\x00\x00\x00\x00\x00\x00\x00'
p9636
tp9637
Rp9638
(i__main__
TreeNode
p9639
(dp9640
g5
(dp9641
sg44
I00
sbsg7
(g11
S'\x05\x00\x00\x00\x00\x00\x00\x00'
p9642
tp9643
Rp9644
(i__main__
TreeNode
p9645
(dp9646
g5
(dp9647
sg44
I00
sbsg7
(g11
S'\x06\x00\x00\x00\x00\x00\x00\x00'
p9648
tp9649
Rp9650
(i__main__
TreeNode
p9651
(dp9652
g5
(dp9653
sg44
I00
sbsI-1
(i__main__
TreeNode
p9654
(dp9655
g5
(dp9656
sg44
I00
sbssg44
I267
sbsI-1
(i__main__
TreeNode
p9657
(dp9658
g5
(dp9659
sg44
I00
sbssg44
I265
sbsg7
(g11
S'\x03\x00\x00\x00\x00\x00\x00\x00'
p9660
tp9661
Rp9662
(i__main__
TreeNode
p9663
(dp9664
g5
(dp9665
g7
(g11
S'\x01\x00\x00\x00\x00\x00\x00\x00'
p9666
tp9667
Rp9668
(i__main__
TreeNode
p9669
(dp9670
g5
(dp9671
g7
(g11
S'\x01\x00\x00\x00\x00\x00\x00\x00'
p9672
tp9673
Rp9674
(i__main__
TreeNode
p9675
(dp9676
g5
(dp9677
g7
(g11
S'\x01\x00\x00\x00\x00\x00\x00\x00'
p9678
tp9679
Rp9680
(i__main__
TreeNode
p9681
(dp9682
g5
(dp9683
sg44
I01
sbsg7
(g11
S'\x03\x00\x00\x00\x00\x00\x00\x00'
p9684
tp9685
Rp9686
(i__main__
TreeNode
p9687
(dp9688
g5
(dp9689
sg44
I01
sbsg7
(g11
S'\x05\x00\x00\x00\x00\x00\x00\x00'
p9690
tp9691
Rp9692
(i__main__
TreeNode
p9693
(dp9694
g5
(dp9695
sg44
I00
sbsI-1
(i__main__
TreeNode
p9696
(dp9697
g5
(dp9698
sg44
I01
sbssg44
I81
sbsg7
(g11
S'\x04\x00\x00\x00\x00\x00\x00\x00'
p9699
tp9700
Rp9701
(i__main__
TreeNode
p9702
(dp9703
g5
(dp9704
sg44
I01
sbsg7
(g11
S'\x05\x00\x00\x00\x00\x00\x00\x00'
p9705
tp9706
Rp9707
(i__main__
TreeNode
p9708
(dp9709
g5
(dp9710
sg44
I00
sbsI-1
(i__main__
TreeNode
p9711
(dp9712
g5
(dp9713
sg44
I01
sbssg44
I84
sbsg7
(g11
S'\x02\x00\x00\x00\x00\x00\x00\x00'
p9714
tp9715
Rp9716
(i__main__
TreeNode
p9717
(dp9718
g5
(dp9719
sg44
I00
sbsg7
(g11
S'\x03\x00\x00\x00\x00\x00\x00\x00'
p9720
tp9721
Rp9722
(i__main__
TreeNode
p9723
(dp9724
g5
(dp9725
sg44
I00
sbsg7
(g11
S'\x04\x00\x00\x00\x00\x00\x00\x00'
p9726
tp9727
Rp9728
(i__main__
TreeNode
p9729
(dp9730
g5
(dp9731
g7
(g11
S'\x01\x00\x00\x00\x00\x00\x00\x00'
p9732
tp9733
Rp9734
(i__main__
TreeNode
p9735
(dp9736
g5
(dp9737
sg44
I00
sbsg7
(g11
S'\x03\x00\x00\x00\x00\x00\x00\x00'
p9738
tp9739
Rp9740
(i__main__
TreeNode
p9741
(dp9742
g5
(dp9743
sg44
I00
sbsg7
(g11
S'\x05\x00\x00\x00\x00\x00\x00\x00'
p9744
tp9745
Rp9746
(i__main__
TreeNode
p9747
(dp9748
g5
(dp9749
sg44
I01
sbsI-1
(i__main__
TreeNode
p9750
(dp9751
g5
(dp9752
sg44
I00
sbssg44
I84
sbsg7
(g11
S'\x05\x00\x00\x00\x00\x00\x00\x00'
p9753
tp9754
Rp9755
(i__main__
TreeNode
p9756
(dp9757
g5
(dp9758
sg44
I00
sbsI-1
(i__main__
TreeNode
p9759
(dp9760
g5
(dp9761
sg44
I00
sbssg44
I85
sbsg7
(g11
S'\x04\x00\x00\x00\x00\x00\x00\x00'
p9762
tp9763
Rp9764
(i__main__
TreeNode
p9765
(dp9766
g5
(dp9767
sg44
I00
sbsg7
(g11
S'\x05\x00\x00\x00\x00\x00\x00\x00'
p9768
tp9769
Rp9770
(i__main__
TreeNode
p9771
(dp9772
g5
(dp9773
sg44
I00
sbsg7
(g11
S'\x06\x00\x00\x00\x00\x00\x00\x00'
p9774
tp9775
Rp9776
(i__main__
TreeNode
p9777
(dp9778
g5
(dp9779
sg44
I00
sbsg7
(g11
S'\x07\x00\x00\x00\x00\x00\x00\x00'
p9780
tp9781
Rp9782
(i__main__
TreeNode
p9783
(dp9784
g5
(dp9785
sg44
I00
sbsI-1
(i__main__
TreeNode
p9786
(dp9787
g5
(dp9788
sg44
I00
sbssg44
I242
sbsg7
(g11
S'\x06\x00\x00\x00\x00\x00\x00\x00'
p9789
tp9790
Rp9791
(i__main__
TreeNode
p9792
(dp9793
g5
(dp9794
g7
(g11
S'\x01\x00\x00\x00\x00\x00\x00\x00'
p9795
tp9796
Rp9797
(i__main__
TreeNode
p9798
(dp9799
g5
(dp9800
g7
(g11
S'\x01\x00\x00\x00\x00\x00\x00\x00'
p9801
tp9802
Rp9803
(i__main__
TreeNode
p9804
(dp9805
g5
(dp9806
sg44
I00
sbsg7
(g11
S'\x02\x00\x00\x00\x00\x00\x00\x00'
p9807
tp9808
Rp9809
(i__main__
TreeNode
p9810
(dp9811
g5
(dp9812
sg44
I00
sbsg7
(g11
S'\x03\x00\x00\x00\x00\x00\x00\x00'
p9813
tp9814
Rp9815
(i__main__
TreeNode
p9816
(dp9817
g5
(dp9818
sg44
I01
sbsg7
(g11
S'\x05\x00\x00\x00\x00\x00\x00\x00'
p9819
tp9820
Rp9821
(i__main__
TreeNode
p9822
(dp9823
g5
(dp9824
sg44
I00
sbsI-1
(i__main__
TreeNode
p9825
(dp9826
g5
(dp9827
sg44
I00
sbssg44
I84
sbsg7
(g11
S'\x02\x00\x00\x00\x00\x00\x00\x00'
p9828
tp9829
Rp9830
(i__main__
TreeNode
p9831
(dp9832
g5
(dp9833
sg44
I00
sbsg7
(g11
S'\x03\x00\x00\x00\x00\x00\x00\x00'
p9834
tp9835
Rp9836
(i__main__
TreeNode
p9837
(dp9838
g5
(dp9839
sg44
I01
sbsg7
(g11
S'\x05\x00\x00\x00\x00\x00\x00\x00'
p9840
tp9841
Rp9842
(i__main__
TreeNode
p9843
(dp9844
g5
(dp9845
sg44
I01
sbsg7
(g11
S'\x06\x00\x00\x00\x00\x00\x00\x00'
p9846
tp9847
Rp9848
(i__main__
TreeNode
p9849
(dp9850
g5
(dp9851
sg44
I01
sbsI-1
(i__main__
TreeNode
p9852
(dp9853
g5
(dp9854
sg44
I00
sbssg44
I139
sbsg7
(g11
S'\x07\x00\x00\x00\x00\x00\x00\x00'
p9855
tp9856
Rp9857
(i__main__
TreeNode
p9858
(dp9859
g5
(dp9860
g7
(g11
S'\x01\x00\x00\x00\x00\x00\x00\x00'
p9861
tp9862
Rp9863
(i__main__
TreeNode
p9864
(dp9865
g5
(dp9866
sg44
I00
sbsg7
(g11
S'\x02\x00\x00\x00\x00\x00\x00\x00'
p9867
tp9868
Rp9869
(i__main__
TreeNode
p9870
(dp9871
g5
(dp9872
sg44
I00
sbsg7
(g11
S'\x03\x00\x00\x00\x00\x00\x00\x00'
p9873
tp9874
Rp9875
(i__main__
TreeNode
p9876
(dp9877
g5
(dp9878
sg44
I00
sbsg7
(g11
S'\x04\x00\x00\x00\x00\x00\x00\x00'
p9879
tp9880
Rp9881
(i__main__
TreeNode
p9882
(dp9883
g5
(dp9884
sg44
I01
sbsI-1
(i__main__
TreeNode
p9885
(dp9886
g5
(dp9887
sg44
I00
sbssg44
I272
sbsg7
(g11
S'\x08\x00\x00\x00\x00\x00\x00\x00'
p9888
tp9889
Rp9890
(i__main__
TreeNode
p9891
(dp9892
g5
(dp9893
sg44
I00
sbsg7
(g11
S'\t\x00\x00\x00\x00\x00\x00\x00'
p9894
tp9895
Rp9896
(i__main__
TreeNode
p9897
(dp9898
g5
(dp9899
sg44
I00
sbsI-1
(i__main__
TreeNode
p9900
(dp9901
g5
(dp9902
sg44
I00
sbssg44
I262
sbsI-1
(i__main__
TreeNode
p9903
(dp9904
g5
(dp9905
sg44
I00
sbssg44
I89
sbsS'p_value_threshold'
p9906
F0.1
sb.