(i__main__
ID3DecisionTree
p0
(dp1
S'root'
p2
(i__main__
TreeNode
p3
(dp4
S'children'
p5
(dp6
cnumpy.core.multiarray
scalar
p7
(cnumpy
dtype
p8
(S'i8'
p9
I0
I1
tp10
Rp11
(I3
S'<'
p12
NNNI-1
I-1
I0
tp13
bS'\x01\x00\x00\x00\x00\x00\x00\x00'
p14
tp15
Rp16
(i__main__
TreeNode
p17
(dp18
g5
(dp19
g7
(g11
S'\x01\x00\x00\x00\x00\x00\x00\x00'
p20
tp21
Rp22
(i__main__
TreeNode
p23
(dp24
g5
(dp25
g7
(g11
S'\x01\x00\x00\x00\x00\x00\x00\x00'
p26
tp27
Rp28
(i__main__
TreeNode
p29
(dp30
g5
(dp31
g7
(g11
S'\x01\x00\x00\x00\x00\x00\x00\x00'
p32
tp33
Rp34
(i__main__
TreeNode
p35
(dp36
g5
(dp37
g7
(g11
S'\x01\x00\x00\x00\x00\x00\x00\x00'
p38
tp39
Rp40
(i__main__
TreeNode
p41
(dp42
g5
(dp43
sS'val'
p44
I00
sbsg7
(g11
S'\x03\x00\x00\x00\x00\x00\x00\x00'
p45
tp46
Rp47
(i__main__
TreeNode
p48
(dp49
g5
(dp50
sg44
I00
sbsg7
(g11
S'\x04\x00\x00\x00\x00\x00\x00\x00'
p51
tp52
Rp53
(i__main__
TreeNode
p54
(dp55
g5
(dp56
sg44
I01
sbsg7
(g11
S'\x05\x00\x00\x00\x00\x00\x00\x00'
p57
tp58
Rp59
(i__main__
TreeNode
p60
(dp61
g5
(dp62
g7
(g11
S'\x01\x00\x00\x00\x00\x00\x00\x00'
p63
tp64
Rp65
(i__main__
TreeNode
p66
(dp67
g5
(dp68
sg44
I00
sbsg7
(g11
S'\x02\x00\x00\x00\x00\x00\x00\x00'
p69
tp70
Rp71
(i__main__
TreeNode
p72
(dp73
g5
(dp74
sg44
I00
sbsg7
(g11
S'\x03\x00\x00\x00\x00\x00\x00\x00'
p75
tp76
Rp77
(i__main__
TreeNode
p78
(dp79
g5
(dp80
sg44
I00
sbsg7
(g11
S'\x04\x00\x00\x00\x00\x00\x00\x00'
p81
tp82
Rp83
(i__main__
TreeNode
p84
(dp85
g5
(dp86
sg44
I00
sbsg7
(g11
S'\x05\x00\x00\x00\x00\x00\x00\x00'
p87
tp88
Rp89
(i__main__
TreeNode
p90
(dp91
g5
(dp92
g7
(g11
S'\x01\x00\x00\x00\x00\x00\x00\x00'
p93
tp94
Rp95
(i__main__
TreeNode
p96
(dp97
g5
(dp98
sg44
I00
sbsg7
(g11
S'\x02\x00\x00\x00\x00\x00\x00\x00'
p99
tp100
Rp101
(i__main__
TreeNode
p102
(dp103
g5
(dp104
sg44
I00
sbsg7
(g11
S'\x03\x00\x00\x00\x00\x00\x00\x00'
p105
tp106
Rp107
(i__main__
TreeNode
p108
(dp109
g5
(dp110
sg44
I01
sbsg7
(g11
S'\x04\x00\x00\x00\x00\x00\x00\x00'
p111
tp112
Rp113
(i__main__
TreeNode
p114
(dp115
g5
(dp116
sg44
I00
sbsI-1
(i__main__
TreeNode
p117
(dp118
g5
(dp119
sg44
I00
sbssg44
I127
sbsg7
(g11
S'\x07\x00\x00\x00\x00\x00\x00\x00'
p120
tp121
Rp122
(i__main__
TreeNode
p123
(dp124
g5
(dp125
sg44
I01
sbsI-1
(i__main__
TreeNode
p126
(dp127
g5
(dp128
sg44
I00
sbssg44
I273
sbsI-1
(i__main__
TreeNode
p129
(dp130
g5
(dp131
sg44
I00
sbssg44
I165
sbsg7
(g11
S'\x02\x00\x00\x00\x00\x00\x00\x00'
p132
tp133
Rp134
(i__main__
TreeNode
p135
(dp136
g5
(dp137
sg44
I00
sbsg7
(g11
S'\x03\x00\x00\x00\x00\x00\x00\x00'
p138
tp139
Rp140
(i__main__
TreeNode
p141
(dp142
g5
(dp143
sg44
I01
sbsg7
(g11
S')\x00\x00\x00\x00\x00\x00\x00'
p144
tp145
Rp146
(i__main__
TreeNode
p147
(dp148
g5
(dp149
sg44
I01
sbsg7
(g11
S'\x0b\x00\x00\x00\x00\x00\x00\x00'
p150
tp151
Rp152
(i__main__
TreeNode
p153
(dp154
g5
(dp155
sg44
I01
sbsg7
(g11
S'/\x00\x00\x00\x00\x00\x00\x00'
p156
tp157
Rp158
(i__main__
TreeNode
p159
(dp160
g5
(dp161
sg44
I01
sbsg7
(g11
S'\x15\x00\x00\x00\x00\x00\x00\x00'
p162
tp163
Rp164
(i__main__
TreeNode
p165
(dp166
g5
(dp167
sg44
I01
sbsI-1
(i__main__
TreeNode
p168
(dp169
g5
(dp170
sg44
I00
sbssg44
I15
sbsg7
(g11
S'\x02\x00\x00\x00\x00\x00\x00\x00'
p171
tp172
Rp173
(i__main__
TreeNode
p174
(dp175
g5
(dp176
g7
(g11
S'\x01\x00\x00\x00\x00\x00\x00\x00'
p177
tp178
Rp179
(i__main__
TreeNode
p180
(dp181
g5
(dp182
sg44
I00
sbsg7
(g11
S'\x02\x00\x00\x00\x00\x00\x00\x00'
p183
tp184
Rp185
(i__main__
TreeNode
p186
(dp187
g5
(dp188
sg44
I00
sbsg7
(g11
S'\x03\x00\x00\x00\x00\x00\x00\x00'
p189
tp190
Rp191
(i__main__
TreeNode
p192
(dp193
g5
(dp194
g7
(g11
S'\x01\x00\x00\x00\x00\x00\x00\x00'
p195
tp196
Rp197
(i__main__
TreeNode
p198
(dp199
g5
(dp200
sg44
I00
sbsg7
(g11
S'\x02\x00\x00\x00\x00\x00\x00\x00'
p201
tp202
Rp203
(i__main__
TreeNode
p204
(dp205
g5
(dp206
sg44
I01
sbsg7
(g11
S'\x03\x00\x00\x00\x00\x00\x00\x00'
p207
tp208
Rp209
(i__main__
TreeNode
p210
(dp211
g5
(dp212
g7
(g11
S'\x01\x00\x00\x00\x00\x00\x00\x00'
p213
tp214
Rp215
(i__main__
TreeNode
p216
(dp217
g5
(dp218
sg44
I01
sbsg7
(g11
S'\x02\x00\x00\x00\x00\x00\x00\x00'
p219
tp220
Rp221
(i__main__
TreeNode
p222
(dp223
g5
(dp224
sg44
I00
sbsI-1
(i__main__
TreeNode
p225
(dp226
g5
(dp227
sg44
I00
sbssg44
I128
sbsg7
(g11
S'\x04\x00\x00\x00\x00\x00\x00\x00'
p228
tp229
Rp230
(i__main__
TreeNode
p231
(dp232
g5
(dp233
sg44
I00
sbsg7
(g11
S'\x05\x00\x00\x00\x00\x00\x00\x00'
p234
tp235
Rp236
(i__main__
TreeNode
p237
(dp238
g5
(dp239
g7
(g11
S'\x01\x00\x00\x00\x00\x00\x00\x00'
p240
tp241
Rp242
(i__main__
TreeNode
p243
(dp244
g5
(dp245
sg44
I00
sbsg7
(g11
S'\x02\x00\x00\x00\x00\x00\x00\x00'
p246
tp247
Rp248
(i__main__
TreeNode
p249
(dp250
g5
(dp251
sg44
I01
sbsg7
(g11
S'\x03\x00\x00\x00\x00\x00\x00\x00'
p252
tp253
Rp254
(i__main__
TreeNode
p255
(dp256
g5
(dp257
sg44
I01
sbsg7
(g11
S'\x04\x00\x00\x00\x00\x00\x00\x00'
p258
tp259
Rp260
(i__main__
TreeNode
p261
(dp262
g5
(dp263
sg44
I01
sbsI-1
(i__main__
TreeNode
p264
(dp265
g5
(dp266
sg44
I01
sbssg44
I129
sbsI-1
(i__main__
TreeNode
p267
(dp268
g5
(dp269
sg44
I00
sbssg44
I82
sbsg7
(g11
S'\x04\x00\x00\x00\x00\x00\x00\x00'
p270
tp271
Rp272
(i__main__
TreeNode
p273
(dp274
g5
(dp275
sg44
I00
sbsg7
(g11
S'\x05\x00\x00\x00\x00\x00\x00\x00'
p276
tp277
Rp278
(i__main__
TreeNode
p279
(dp280
g5
(dp281
sg44
I01
sbsI-1
(i__main__
TreeNode
p282
(dp283
g5
(dp284
sg44
I00
sbssg44
I85
sbsg7
(g11
S'\x03\x00\x00\x00\x00\x00\x00\x00'
p285
tp286
Rp287
(i__main__
TreeNode
p288
(dp289
g5
(dp290
sg44
I00
sbsg7
(g11
S'\x04\x00\x00\x00\x00\x00\x00\x00'
p291
tp292
Rp293
(i__main__
TreeNode
p294
(dp295
g5
(dp296
g7
(g11
S'\x01\x00\x00\x00\x00\x00\x00\x00'
p297
tp298
Rp299
(i__main__
TreeNode
p300
(dp301
g5
(dp302
g7
(g11
S'\x01\x00\x00\x00\x00\x00\x00\x00'
p303
tp304
Rp305
(i__main__
TreeNode
p306
(dp307
g5
(dp308
sg44
I00
sbsg7
(g11
S'\x04\x00\x00\x00\x00\x00\x00\x00'
p309
tp310
Rp311
(i__main__
TreeNode
p312
(dp313
g5
(dp314
sg44
I01
sbsg7
(g11
S'\x05\x00\x00\x00\x00\x00\x00\x00'
p315
tp316
Rp317
(i__main__
TreeNode
p318
(dp319
g5
(dp320
sg44
I00
sbsI-1
(i__main__
TreeNode
p321
(dp322
g5
(dp323
sg44
I00
sbssg44
I84
sbsg7
(g11
S'\x02\x00\x00\x00\x00\x00\x00\x00'
p324
tp325
Rp326
(i__main__
TreeNode
p327
(dp328
g5
(dp329
sg44
I00
sbsg7
(g11
S'\x03\x00\x00\x00\x00\x00\x00\x00'
p330
tp331
Rp332
(i__main__
TreeNode
p333
(dp334
g5
(dp335
sg44
I01
sbsg7
(g11
S'\x04\x00\x00\x00\x00\x00\x00\x00'
p336
tp337
Rp338
(i__main__
TreeNode
p339
(dp340
g5
(dp341
sg44
I00
sbsg7
(g11
S'\x05\x00\x00\x00\x00\x00\x00\x00'
p342
tp343
Rp344
(i__main__
TreeNode
p345
(dp346
g5
(dp347
g7
(g11
S'\x01\x00\x00\x00\x00\x00\x00\x00'
p348
tp349
Rp350
(i__main__
TreeNode
p351
(dp352
g5
(dp353
sg44
I01
sbsg7
(g11
S'\x04\x00\x00\x00\x00\x00\x00\x00'
p354
tp355
Rp356
(i__main__
TreeNode
p357
(dp358
g5
(dp359
sg44
I00
sbsg7
(g11
S'\x05\x00\x00\x00\x00\x00\x00\x00'
p360
tp361
Rp362
(i__main__
TreeNode
p363
(dp364
g5
(dp365
sg44
I00
sbsI-1
(i__main__
TreeNode
p366
(dp367
g5
(dp368
sg44
I00
sbssg44
I266
sbsI-1
(i__main__
TreeNode
p369
(dp370
g5
(dp371
sg44
I00
sbssg44
I82
sbsg7
(g11
S'\x05\x00\x00\x00\x00\x00\x00\x00'
p372
tp373
Rp374
(i__main__
TreeNode
p375
(dp376
g5
(dp377
sg44
I00
sbsg7
(g11
S'\x06\x00\x00\x00\x00\x00\x00\x00'
p378
tp379
Rp380
(i__main__
TreeNode
p381
(dp382
g5
(dp383
sg44
I00
sbsg7
(g11
S'\x07\x00\x00\x00\x00\x00\x00\x00'
p384
tp385
Rp386
(i__main__
TreeNode
p387
(dp388
g5
(dp389
g7
(g11
S'\x01\x00\x00\x00\x00\x00\x00\x00'
p390
tp391
Rp392
(i__main__
TreeNode
p393
(dp394
g5
(dp395
sg44
I01
sbsg7
(g11
S'\x02\x00\x00\x00\x00\x00\x00\x00'
p396
tp397
Rp398
(i__main__
TreeNode
p399
(dp400
g5
(dp401
sg44
I00
sbsg7
(g11
S'\x03\x00\x00\x00\x00\x00\x00\x00'
p402
tp403
Rp404
(i__main__
TreeNode
p405
(dp406
g5
(dp407
sg44
I01
sbsg7
(g11
S'\x04\x00\x00\x00\x00\x00\x00\x00'
p408
tp409
Rp410
(i__main__
TreeNode
p411
(dp412
g5
(dp413
sg44
I01
sbsI-1
(i__main__
TreeNode
p414
(dp415
g5
(dp416
sg44
I00
sbssg44
I129
sbsg7
(g11
S'\x08\x00\x00\x00\x00\x00\x00\x00'
p417
tp418
Rp419
(i__main__
TreeNode
p420
(dp421
g5
(dp422
sg44
I00
sbsg7
(g11
S'\t\x00\x00\x00\x00\x00\x00\x00'
p423
tp424
Rp425
(i__main__
TreeNode
p426
(dp427
g5
(dp428
sg44
I00
sbsg7
(g11
S'\n\x00\x00\x00\x00\x00\x00\x00'
p429
tp430
Rp431
(i__main__
TreeNode
p432
(dp433
g5
(dp434
g7
(g11
S'\x01\x00\x00\x00\x00\x00\x00\x00'
p435
tp436
Rp437
(i__main__
TreeNode
p438
(dp439
g5
(dp440
sg44
I00
sbsg7
(g11
S'\x02\x00\x00\x00\x00\x00\x00\x00'
p441
tp442
Rp443
(i__main__
TreeNode
p444
(dp445
g5
(dp446
sg44
I01
sbsg7
(g11
S'\x04\x00\x00\x00\x00\x00\x00\x00'
p447
tp448
Rp449
(i__main__
TreeNode
p450
(dp451
g5
(dp452
sg44
I00
sbsI-1
(i__main__
TreeNode
p453
(dp454
g5
(dp455
sg44
I00
sbssg44
I84
sbsg7
(g11
S'\x0b\x00\x00\x00\x00\x00\x00\x00'
p456
tp457
Rp458
(i__main__
TreeNode
p459
(dp460
g5
(dp461
sg44
I00
sbsg7
(g11
S'\x0c\x00\x00\x00\x00\x00\x00\x00'
p462
tp463
Rp464
(i__main__
TreeNode
p465
(dp466
g5
(dp467
sg44
I00
sbsg7
(g11
S'\r\x00\x00\x00\x00\x00\x00\x00'
p468
tp469
Rp470
(i__main__
TreeNode
p471
(dp472
g5
(dp473
sg44
I01
sbsg7
(g11
S'\x0e\x00\x00\x00\x00\x00\x00\x00'
p474
tp475
Rp476
(i__main__
TreeNode
p477
(dp478
g5
(dp479
sg44
I00
sbsg7
(g11
S'\x0f\x00\x00\x00\x00\x00\x00\x00'
p480
tp481
Rp482
(i__main__
TreeNode
p483
(dp484
g5
(dp485
g7
(g11
S'\x01\x00\x00\x00\x00\x00\x00\x00'
p486
tp487
Rp488
(i__main__
TreeNode
p489
(dp490
g5
(dp491
sg44
I01
sbsg7
(g11
S'\x02\x00\x00\x00\x00\x00\x00\x00'
p492
tp493
Rp494
(i__main__
TreeNode
p495
(dp496
g5
(dp497
sg44
I01
sbsg7
(g11
S'\x04\x00\x00\x00\x00\x00\x00\x00'
p498
tp499
Rp500
(i__main__
TreeNode
p501
(dp502
g5
(dp503
sg44
I00
sbsI-1
(i__main__
TreeNode
p504
(dp505
g5
(dp506
sg44
I01
sbssg44
I272
sbsg7
(g11
S'\x10\x00\x00\x00\x00\x00\x00\x00'
p507
tp508
Rp509
(i__main__
TreeNode
p510
(dp511
g5
(dp512
sg44
I00
sbsg7
(g11
S'\x11\x00\x00\x00\x00\x00\x00\x00'
p513
tp514
Rp515
(i__main__
TreeNode
p516
(dp517
g5
(dp518
sg44
I01
sbsg7
(g11
S'\x12\x00\x00\x00\x00\x00\x00\x00'
p519
tp520
Rp521
(i__main__
TreeNode
p522
(dp523
g5
(dp524
sg44
I01
sbsg7
(g11
S'\x13\x00\x00\x00\x00\x00\x00\x00'
p525
tp526
Rp527
(i__main__
TreeNode
p528
(dp529
g5
(dp530
sg44
I00
sbsg7
(g11
S'\x14\x00\x00\x00\x00\x00\x00\x00'
p531
tp532
Rp533
(i__main__
TreeNode
p534
(dp535
g5
(dp536
g7
(g11
S'\x01\x00\x00\x00\x00\x00\x00\x00'
p537
tp538
Rp539
(i__main__
TreeNode
p540
(dp541
g5
(dp542
sg44
I01
sbsg7
(g11
S'\x02\x00\x00\x00\x00\x00\x00\x00'
p543
tp544
Rp545
(i__main__
TreeNode
p546
(dp547
g5
(dp548
sg44
I00
sbsg7
(g11
S'\x03\x00\x00\x00\x00\x00\x00\x00'
p549
tp550
Rp551
(i__main__
TreeNode
p552
(dp553
g5
(dp554
sg44
I00
sbsg7
(g11
S'\x04\x00\x00\x00\x00\x00\x00\x00'
p555
tp556
Rp557
(i__main__
TreeNode
p558
(dp559
g5
(dp560
sg44
I00
sbsg7
(g11
S'\x05\x00\x00\x00\x00\x00\x00\x00'
p561
tp562
Rp563
(i__main__
TreeNode
p564
(dp565
g5
(dp566
sg44
I01
sbsI-1
(i__main__
TreeNode
p567
(dp568
g5
(dp569
sg44
I00
sbssg44
I88
sbsg7
(g11
S'\x15\x00\x00\x00\x00\x00\x00\x00'
p570
tp571
Rp572
(i__main__
TreeNode
p573
(dp574
g5
(dp575
sg44
I00
sbsI-1
(i__main__
TreeNode
p576
(dp577
g5
(dp578
sg44
I00
sbssg44
I263
sbsg7
(g11
S'\x02\x00\x00\x00\x00\x00\x00\x00'
p579
tp580
Rp581
(i__main__
TreeNode
p582
(dp583
g5
(dp584
sg44
I00
sbsg7
(g11
S'\x03\x00\x00\x00\x00\x00\x00\x00'
p585
tp586
Rp587
(i__main__
TreeNode
p588
(dp589
g5
(dp590
sg44
I00
sbsg7
(g11
S'\x04\x00\x00\x00\x00\x00\x00\x00'
p591
tp592
Rp593
(i__main__
TreeNode
p594
(dp595
g5
(dp596
sg44
I00
sbsg7
(g11
S'\x05\x00\x00\x00\x00\x00\x00\x00'
p597
tp598
Rp599
(i__main__
TreeNode
p600
(dp601
g5
(dp602
sg44
I00
sbsg7
(g11
S'\x06\x00\x00\x00\x00\x00\x00\x00'
p603
tp604
Rp605
(i__main__
TreeNode
p606
(dp607
g5
(dp608
g7
(g11
S'\x01\x00\x00\x00\x00\x00\x00\x00'
p609
tp610
Rp611
(i__main__
TreeNode
p612
(dp613
g5
(dp614
sg44
I00
sbsg7
(g11
S'\x02\x00\x00\x00\x00\x00\x00\x00'
p615
tp616
Rp617
(i__main__
TreeNode
p618
(dp619
g5
(dp620
sg44
I01
sbsI-1
(i__main__
TreeNode
p621
(dp622
g5
(dp623
sg44
I00
sbssg44
I4
sbsI-1
(i__main__
TreeNode
p624
(dp625
g5
(dp626
sg44
I00
sbssg44
I271
sbsg7
(g11
S'\x02\x00\x00\x00\x00\x00\x00\x00'
p627
tp628
Rp629
(i__main__
TreeNode
p630
(dp631
g5
(dp632
g7
(g11
S'\x01\x00\x00\x00\x00\x00\x00\x00'
p633
tp634
Rp635
(i__main__
TreeNode
p636
(dp637
g5
(dp638
g7
(g11
S'\x01\x00\x00\x00\x00\x00\x00\x00'
p639
tp640
Rp641
(i__main__
TreeNode
p642
(dp643
g5
(dp644
sg44
I00
sbsg7
(g11
S'\x02\x00\x00\x00\x00\x00\x00\x00'
p645
tp646
Rp647
(i__main__
TreeNode
p648
(dp649
g5
(dp650
g7
(g11
S'\x01\x00\x00\x00\x00\x00\x00\x00'
p651
tp652
Rp653
(i__main__
TreeNode
p654
(dp655
g5
(dp656
sg44
I00
sbsg7
(g11
S'\x02\x00\x00\x00\x00\x00\x00\x00'
p657
tp658
Rp659
(i__main__
TreeNode
p660
(dp661
g5
(dp662
sg44
I01
sbsg7
(g11
S'\x03\x00\x00\x00\x00\x00\x00\x00'
p663
tp664
Rp665
(i__main__
TreeNode
p666
(dp667
g5
(dp668
sg44
I00
sbsg7
(g11
S'\x05\x00\x00\x00\x00\x00\x00\x00'
p669
tp670
Rp671
(i__main__
TreeNode
p672
(dp673
g5
(dp674
sg44
I01
sbsg7
(g11
S'\x06\x00\x00\x00\x00\x00\x00\x00'
p675
tp676
Rp677
(i__main__
TreeNode
p678
(dp679
g5
(dp680
sg44
I01
sbsI-1
(i__main__
TreeNode
p681
(dp682
g5
(dp683
sg44
I01
sbssg44
I157
sbsg7
(g11
S'\x03\x00\x00\x00\x00\x00\x00\x00'
p684
tp685
Rp686
(i__main__
TreeNode
p687
(dp688
g5
(dp689
sg44
I01
sbsg7
(g11
S'\x04\x00\x00\x00\x00\x00\x00\x00'
p690
tp691
Rp692
(i__main__
TreeNode
p693
(dp694
g5
(dp695
g7
(g11
S'\x01\x00\x00\x00\x00\x00\x00\x00'
p696
tp697
Rp698
(i__main__
TreeNode
p699
(dp700
g5
(dp701
sg44
I00
sbsg7
(g11
S'\x02\x00\x00\x00\x00\x00\x00\x00'
p702
tp703
Rp704
(i__main__
TreeNode
p705
(dp706
g5
(dp707
sg44
I01
sbsg7
(g11
S'\x03\x00\x00\x00\x00\x00\x00\x00'
p708
tp709
Rp710
(i__main__
TreeNode
p711
(dp712
g5
(dp713
g7
(g11
S'\x01\x00\x00\x00\x00\x00\x00\x00'
p714
tp715
Rp716
(i__main__
TreeNode
p717
(dp718
g5
(dp719
sg44
I01
sbsg7
(g11
S'\x03\x00\x00\x00\x00\x00\x00\x00'
p720
tp721
Rp722
(i__main__
TreeNode
p723
(dp724
g5
(dp725
sg44
I00
sbsI-1
(i__main__
TreeNode
p726
(dp727
g5
(dp728
sg44
I00
sbssg44
I90
sbsg7
(g11
S'\x04\x00\x00\x00\x00\x00\x00\x00'
p729
tp730
Rp731
(i__main__
TreeNode
p732
(dp733
g5
(dp734
sg44
I01
sbsg7
(g11
S'\x05\x00\x00\x00\x00\x00\x00\x00'
p735
tp736
Rp737
(i__main__
TreeNode
p738
(dp739
g5
(dp740
sg44
I01
sbsg7
(g11
S'\x06\x00\x00\x00\x00\x00\x00\x00'
p741
tp742
Rp743
(i__main__
TreeNode
p744
(dp745
g5
(dp746
sg44
I01
sbsI-1
(i__main__
TreeNode
p747
(dp748
g5
(dp749
sg44
I01
sbssg44
I139
sbsg7
(g11
S'\x05\x00\x00\x00\x00\x00\x00\x00'
p750
tp751
Rp752
(i__main__
TreeNode
p753
(dp754
g5
(dp755
sg44
I00
sbsg7
(g11
S'\x06\x00\x00\x00\x00\x00\x00\x00'
p756
tp757
Rp758
(i__main__
TreeNode
p759
(dp760
g5
(dp761
sg44
I01
sbsg7
(g11
S'\x07\x00\x00\x00\x00\x00\x00\x00'
p762
tp763
Rp764
(i__main__
TreeNode
p765
(dp766
g5
(dp767
g7
(g11
S'\x01\x00\x00\x00\x00\x00\x00\x00'
p768
tp769
Rp770
(i__main__
TreeNode
p771
(dp772
g5
(dp773
sg44
I01
sbsg7
(g11
S'\x02\x00\x00\x00\x00\x00\x00\x00'
p774
tp775
Rp776
(i__main__
TreeNode
p777
(dp778
g5
(dp779
sg44
I00
sbsg7
(g11
S'\x03\x00\x00\x00\x00\x00\x00\x00'
p780
tp781
Rp782
(i__main__
TreeNode
p783
(dp784
g5
(dp785
sg44
I00
sbsg7
(g11
S'\x05\x00\x00\x00\x00\x00\x00\x00'
p786
tp787
Rp788
(i__main__
TreeNode
p789
(dp790
g5
(dp791
sg44
I01
sbsI-1
(i__main__
TreeNode
p792
(dp793
g5
(dp794
sg44
I01
sbssg44
I152
sbsg7
(g11
S'\x08\x00\x00\x00\x00\x00\x00\x00'
p795
tp796
Rp797
(i__main__
TreeNode
p798
(dp799
g5
(dp800
sg44
I01
sbsg7
(g11
S'\t\x00\x00\x00\x00\x00\x00\x00'
p801
tp802
Rp803
(i__main__
TreeNode
p804
(dp805
g5
(dp806
sg44
I01
sbsg7
(g11
S'\n\x00\x00\x00\x00\x00\x00\x00'
p807
tp808
Rp809
(i__main__
TreeNode
p810
(dp811
g5
(dp812
sg44
I01
sbsg7
(g11
S'\x0b\x00\x00\x00\x00\x00\x00\x00'
p813
tp814
Rp815
(i__main__
TreeNode
p816
(dp817
g5
(dp818
g7
(g11
S'\x01\x00\x00\x00\x00\x00\x00\x00'
p819
tp820
Rp821
(i__main__
TreeNode
p822
(dp823
g5
(dp824
sg44
I00
sbsg7
(g11
S'\x02\x00\x00\x00\x00\x00\x00\x00'
p825
tp826
Rp827
(i__main__
TreeNode
p828
(dp829
g5
(dp830
sg44
I01
sbsg7
(g11
S'\x03\x00\x00\x00\x00\x00\x00\x00'
p831
tp832
Rp833
(i__main__
TreeNode
p834
(dp835
g5
(dp836
sg44
I00
sbsg7
(g11
S'\x05\x00\x00\x00\x00\x00\x00\x00'
p837
tp838
Rp839
(i__main__
TreeNode
p840
(dp841
g5
(dp842
sg44
I01
sbsg7
(g11
S'\x06\x00\x00\x00\x00\x00\x00\x00'
p843
tp844
Rp845
(i__main__
TreeNode
p846
(dp847
g5
(dp848
sg44
I01
sbsI-1
(i__main__
TreeNode
p849
(dp850
g5
(dp851
sg44
I01
sbssg44
I267
sbsg7
(g11
S'\x0c\x00\x00\x00\x00\x00\x00\x00'
p852
tp853
Rp854
(i__main__
TreeNode
p855
(dp856
g5
(dp857
g7
(g11
S'\x01\x00\x00\x00\x00\x00\x00\x00'
p858
tp859
Rp860
(i__main__
TreeNode
p861
(dp862
g5
(dp863
sg44
I01
sbsg7
(g11
S'\x02\x00\x00\x00\x00\x00\x00\x00'
p864
tp865
Rp866
(i__main__
TreeNode
p867
(dp868
g5
(dp869
sg44
I00
sbsg7
(g11
S'\x03\x00\x00\x00\x00\x00\x00\x00'
p870
tp871
Rp872
(i__main__
TreeNode
p873
(dp874
g5
(dp875
sg44
I00
sbsg7
(g11
S'\x05\x00\x00\x00\x00\x00\x00\x00'
p876
tp877
Rp878
(i__main__
TreeNode
p879
(dp880
g5
(dp881
sg44
I01
sbsI-1
(i__main__
TreeNode
p882
(dp883
g5
(dp884
sg44
I00
sbssg44
I0
sbsg7
(g11
S'\r\x00\x00\x00\x00\x00\x00\x00'
p885
tp886
Rp887
(i__main__
TreeNode
p888
(dp889
g5
(dp890
sg44
I00
sbsg7
(g11
S'\x0e\x00\x00\x00\x00\x00\x00\x00'
p891
tp892
Rp893
(i__main__
TreeNode
p894
(dp895
g5
(dp896
sg44
I00
sbsg7
(g11
S'\x0f\x00\x00\x00\x00\x00\x00\x00'
p897
tp898
Rp899
(i__main__
TreeNode
p900
(dp901
g5
(dp902
sg44
I00
sbsg7
(g11
S'\x10\x00\x00\x00\x00\x00\x00\x00'
p903
tp904
Rp905
(i__main__
TreeNode
p906
(dp907
g5
(dp908
sg44
I01
sbsg7
(g11
S'\x11\x00\x00\x00\x00\x00\x00\x00'
p909
tp910
Rp911
(i__main__
TreeNode
p912
(dp913
g5
(dp914
sg44
I01
sbsg7
(g11
S'\x12\x00\x00\x00\x00\x00\x00\x00'
p915
tp916
Rp917
(i__main__
TreeNode
p918
(dp919
g5
(dp920
g7
(g11
S'\x02\x00\x00\x00\x00\x00\x00\x00'
p921
tp922
Rp923
(i__main__
TreeNode
p924
(dp925
g5
(dp926
sg44
I00
sbsg7
(g11
S'\x03\x00\x00\x00\x00\x00\x00\x00'
p927
tp928
Rp929
(i__main__
TreeNode
p930
(dp931
g5
(dp932
sg44
I01
sbsI-1
(i__main__
TreeNode
p933
(dp934
g5
(dp935
sg44
I01
sbssg44
I0
sbsg7
(g11
S'\x13\x00\x00\x00\x00\x00\x00\x00'
p936
tp937
Rp938
(i__main__
TreeNode
p939
(dp940
g5
(dp941
sg44
I01
sbsg7
(g11
S'\x14\x00\x00\x00\x00\x00\x00\x00'
p942
tp943
Rp944
(i__main__
TreeNode
p945
(dp946
g5
(dp947
sg44
I01
sbsg7
(g11
S'\x15\x00\x00\x00\x00\x00\x00\x00'
p948
tp949
Rp950
(i__main__
TreeNode
p951
(dp952
g5
(dp953
sg44
I01
sbsg7
(g11
S'\x16\x00\x00\x00\x00\x00\x00\x00'
p954
tp955
Rp956
(i__main__
TreeNode
p957
(dp958
g5
(dp959
sg44
I01
sbsg7
(g11
S'\x17\x00\x00\x00\x00\x00\x00\x00'
p960
tp961
Rp962
(i__main__
TreeNode
p963
(dp964
g5
(dp965
sg44
I01
sbsg7
(g11
S'\x18\x00\x00\x00\x00\x00\x00\x00'
p966
tp967
Rp968
(i__main__
TreeNode
p969
(dp970
g5
(dp971
sg44
I00
sbsg7
(g11
S'\x19\x00\x00\x00\x00\x00\x00\x00'
p972
tp973
Rp974
(i__main__
TreeNode
p975
(dp976
g5
(dp977
sg44
I01
sbsg7
(g11
S'\x1b\x00\x00\x00\x00\x00\x00\x00'
p978
tp979
Rp980
(i__main__
TreeNode
p981
(dp982
g5
(dp983
sg44
I00
sbsg7
(g11
S'\x1c\x00\x00\x00\x00\x00\x00\x00'
p984
tp985
Rp986
(i__main__
TreeNode
p987
(dp988
g5
(dp989
sg44
I01
sbsg7
(g11
S'\x1d\x00\x00\x00\x00\x00\x00\x00'
p990
tp991
Rp992
(i__main__
TreeNode
p993
(dp994
g5
(dp995
sg44
I01
sbsg7
(g11
S'\x1e\x00\x00\x00\x00\x00\x00\x00'
p996
tp997
Rp998
(i__main__
TreeNode
p999
(dp1000
g5
(dp1001
sg44
I01
sbsg7
(g11
S'\x1f\x00\x00\x00\x00\x00\x00\x00'
p1002
tp1003
Rp1004
(i__main__
TreeNode
p1005
(dp1006
g5
(dp1007
sg44
I01
sbsg7
(g11
S' \x00\x00\x00\x00\x00\x00\x00'
p1008
tp1009
Rp1010
(i__main__
TreeNode
p1011
(dp1012
g5
(dp1013
sg44
I01
sbsg7
(g11
S'!\x00\x00\x00\x00\x00\x00\x00'
p1014
tp1015
Rp1016
(i__main__
TreeNode
p1017
(dp1018
g5
(dp1019
sg44
I01
sbsg7
(g11
S'"\x00\x00\x00\x00\x00\x00\x00'
p1020
tp1021
Rp1022
(i__main__
TreeNode
p1023
(dp1024
g5
(dp1025
g7
(g11
S'\x01\x00\x00\x00\x00\x00\x00\x00'
p1026
tp1027
Rp1028
(i__main__
TreeNode
p1029
(dp1030
g5
(dp1031
sg44
I01
sbsg7
(g11
S'\x03\x00\x00\x00\x00\x00\x00\x00'
p1032
tp1033
Rp1034
(i__main__
TreeNode
p1035
(dp1036
g5
(dp1037
sg44
I00
sbsI-1
(i__main__
TreeNode
p1038
(dp1039
g5
(dp1040
sg44
I00
sbssg44
I0
sbsg7
(g11
S'$\x00\x00\x00\x00\x00\x00\x00'
p1041
tp1042
Rp1043
(i__main__
TreeNode
p1044
(dp1045
g5
(dp1046
sg44
I01
sbsg7
(g11
S'%\x00\x00\x00\x00\x00\x00\x00'
p1047
tp1048
Rp1049
(i__main__
TreeNode
p1050
(dp1051
g5
(dp1052
sg44
I01
sbsg7
(g11
S'&\x00\x00\x00\x00\x00\x00\x00'
p1053
tp1054
Rp1055
(i__main__
TreeNode
p1056
(dp1057
g5
(dp1058
sg44
I00
sbsg7
(g11
S"'\x00\x00\x00\x00\x00\x00\x00"
p1059
tp1060
Rp1061
(i__main__
TreeNode
p1062
(dp1063
g5
(dp1064
sg44
I00
sbsg7
(g11
S'+\x00\x00\x00\x00\x00\x00\x00'
p1065
tp1066
Rp1067
(i__main__
TreeNode
p1068
(dp1069
g5
(dp1070
sg44
I01
sbsg7
(g11
S',\x00\x00\x00\x00\x00\x00\x00'
p1071
tp1072
Rp1073
(i__main__
TreeNode
p1074
(dp1075
g5
(dp1076
sg44
I01
sbsg7
(g11
S'-\x00\x00\x00\x00\x00\x00\x00'
p1077
tp1078
Rp1079
(i__main__
TreeNode
p1080
(dp1081
g5
(dp1082
sg44
I01
sbsg7
(g11
S'.\x00\x00\x00\x00\x00\x00\x00'
p1083
tp1084
Rp1085
(i__main__
TreeNode
p1086
(dp1087
g5
(dp1088
sg44
I00
sbsg7
(g11
S'0\x00\x00\x00\x00\x00\x00\x00'
p1089
tp1090
Rp1091
(i__main__
TreeNode
p1092
(dp1093
g5
(dp1094
sg44
I01
sbsg7
(g11
S'2\x00\x00\x00\x00\x00\x00\x00'
p1095
tp1096
Rp1097
(i__main__
TreeNode
p1098
(dp1099
g5
(dp1100
sg44
I01
sbsI-1
(i__main__
TreeNode
p1101
(dp1102
g5
(dp1103
sg44
I00
sbssg44
I15
sbsg7
(g11
S'\x02\x00\x00\x00\x00\x00\x00\x00'
p1104
tp1105
Rp1106
(i__main__
TreeNode
p1107
(dp1108
g5
(dp1109
sg44
I01
sbsg7
(g11
S'\x03\x00\x00\x00\x00\x00\x00\x00'
p1110
tp1111
Rp1112
(i__main__
TreeNode
p1113
(dp1114
g5
(dp1115
sg44
I00
sbsg7
(g11
S'\x04\x00\x00\x00\x00\x00\x00\x00'
p1116
tp1117
Rp1118
(i__main__
TreeNode
p1119
(dp1120
g5
(dp1121
g7
(g11
S'\x02\x00\x00\x00\x00\x00\x00\x00'
p1122
tp1123
Rp1124
(i__main__
TreeNode
p1125
(dp1126
g5
(dp1127
g7
(g11
S'\x01\x00\x00\x00\x00\x00\x00\x00'
p1128
tp1129
Rp1130
(i__main__
TreeNode
p1131
(dp1132
g5
(dp1133
sg44
I00
sbsg7
(g11
S'\x02\x00\x00\x00\x00\x00\x00\x00'
p1134
tp1135
Rp1136
(i__main__
TreeNode
p1137
(dp1138
g5
(dp1139
sg44
I01
sbsg7
(g11
S'\x15\x00\x00\x00\x00\x00\x00\x00'
p1140
tp1141
Rp1142
(i__main__
TreeNode
p1143
(dp1144
g5
(dp1145
sg44
I00
sbsI-1
(i__main__
TreeNode
p1146
(dp1147
g5
(dp1148
sg44
I00
sbssg44
I1
sbsg7
(g11
S'\x03\x00\x00\x00\x00\x00\x00\x00'
p1149
tp1150
Rp1151
(i__main__
TreeNode
p1152
(dp1153
g5
(dp1154
sg44
I00
sbsg7
(g11
S'\x04\x00\x00\x00\x00\x00\x00\x00'
p1155
tp1156
Rp1157
(i__main__
TreeNode
p1158
(dp1159
g5
(dp1160
g7
(g11
S'\x01\x00\x00\x00\x00\x00\x00\x00'
p1161
tp1162
Rp1163
(i__main__
TreeNode
p1164
(dp1165
g5
(dp1166
sg44
I00
sbsg7
(g11
S'\x02\x00\x00\x00\x00\x00\x00\x00'
p1167
tp1168
Rp1169
(i__main__
TreeNode
p1170
(dp1171
g5
(dp1172
sg44
I00
sbsg7
(g11
S'\x08\x00\x00\x00\x00\x00\x00\x00'
p1173
tp1174
Rp1175
(i__main__
TreeNode
p1176
(dp1177
g5
(dp1178
sg44
I00
sbsg7
(g11
S'\x0b\x00\x00\x00\x00\x00\x00\x00'
p1179
tp1180
Rp1181
(i__main__
TreeNode
p1182
(dp1183
g5
(dp1184
sg44
I01
sbsg7
(g11
S'\x12\x00\x00\x00\x00\x00\x00\x00'
p1185
tp1186
Rp1187
(i__main__
TreeNode
p1188
(dp1189
g5
(dp1190
sg44
I00
sbsI-1
(i__main__
TreeNode
p1191
(dp1192
g5
(dp1193
sg44
I00
sbssg44
I1
sbsg7
(g11
S'\x06\x00\x00\x00\x00\x00\x00\x00'
p1194
tp1195
Rp1196
(i__main__
TreeNode
p1197
(dp1198
g5
(dp1199
sg44
I00
sbsg7
(g11
S'\x07\x00\x00\x00\x00\x00\x00\x00'
p1200
tp1201
Rp1202
(i__main__
TreeNode
p1203
(dp1204
g5
(dp1205
sg44
I00
sbsg7
(g11
S'\x08\x00\x00\x00\x00\x00\x00\x00'
p1206
tp1207
Rp1208
(i__main__
TreeNode
p1209
(dp1210
g5
(dp1211
sg44
I00
sbsg7
(g11
S'\t\x00\x00\x00\x00\x00\x00\x00'
p1212
tp1213
Rp1214
(i__main__
TreeNode
p1215
(dp1216
g5
(dp1217
sg44
I00
sbsg7
(g11
S'\n\x00\x00\x00\x00\x00\x00\x00'
p1218
tp1219
Rp1220
(i__main__
TreeNode
p1221
(dp1222
g5
(dp1223
sg44
I00
sbsg7
(g11
S'\x0b\x00\x00\x00\x00\x00\x00\x00'
p1224
tp1225
Rp1226
(i__main__
TreeNode
p1227
(dp1228
g5
(dp1229
sg44
I00
sbsg7
(g11
S'\x0c\x00\x00\x00\x00\x00\x00\x00'
p1230
tp1231
Rp1232
(i__main__
TreeNode
p1233
(dp1234
g5
(dp1235
sg44
I00
sbsg7
(g11
S'\x0e\x00\x00\x00\x00\x00\x00\x00'
p1236
tp1237
Rp1238
(i__main__
TreeNode
p1239
(dp1240
g5
(dp1241
sg44
I00
sbsg7
(g11
S'\x0f\x00\x00\x00\x00\x00\x00\x00'
p1242
tp1243
Rp1244
(i__main__
TreeNode
p1245
(dp1246
g5
(dp1247
sg44
I00
sbsg7
(g11
S'\x10\x00\x00\x00\x00\x00\x00\x00'
p1248
tp1249
Rp1250
(i__main__
TreeNode
p1251
(dp1252
g5
(dp1253
sg44
I00
sbsg7
(g11
S'\x11\x00\x00\x00\x00\x00\x00\x00'
p1254
tp1255
Rp1256
(i__main__
TreeNode
p1257
(dp1258
g5
(dp1259
sg44
I00
sbsg7
(g11
S'\x12\x00\x00\x00\x00\x00\x00\x00'
p1260
tp1261
Rp1262
(i__main__
TreeNode
p1263
(dp1264
g5
(dp1265
sg44
I00
sbsg7
(g11
S'\x13\x00\x00\x00\x00\x00\x00\x00'
p1266
tp1267
Rp1268
(i__main__
TreeNode
p1269
(dp1270
g5
(dp1271
sg44
I00
sbsg7
(g11
S'\x14\x00\x00\x00\x00\x00\x00\x00'
p1272
tp1273
Rp1274
(i__main__
TreeNode
p1275
(dp1276
g5
(dp1277
sg44
I00
sbsg7
(g11
S'\x15\x00\x00\x00\x00\x00\x00\x00'
p1278
tp1279
Rp1280
(i__main__
TreeNode
p1281
(dp1282
g5
(dp1283
sg44
I00
sbsg7
(g11
S'\x16\x00\x00\x00\x00\x00\x00\x00'
p1284
tp1285
Rp1286
(i__main__
TreeNode
p1287
(dp1288
g5
(dp1289
sg44
I00
sbsg7
(g11
S'\x17\x00\x00\x00\x00\x00\x00\x00'
p1290
tp1291
Rp1292
(i__main__
TreeNode
p1293
(dp1294
g5
(dp1295
sg44
I00
sbsg7
(g11
S'\x18\x00\x00\x00\x00\x00\x00\x00'
p1296
tp1297
Rp1298
(i__main__
TreeNode
p1299
(dp1300
g5
(dp1301
sg44
I00
sbsg7
(g11
S'\x19\x00\x00\x00\x00\x00\x00\x00'
p1302
tp1303
Rp1304
(i__main__
TreeNode
p1305
(dp1306
g5
(dp1307
sg44
I00
sbsg7
(g11
S'\x1a\x00\x00\x00\x00\x00\x00\x00'
p1308
tp1309
Rp1310
(i__main__
TreeNode
p1311
(dp1312
g5
(dp1313
sg44
I00
sbsg7
(g11
S'\x1c\x00\x00\x00\x00\x00\x00\x00'
p1314
tp1315
Rp1316
(i__main__
TreeNode
p1317
(dp1318
g5
(dp1319
sg44
I00
sbsg7
(g11
S'\x1e\x00\x00\x00\x00\x00\x00\x00'
p1320
tp1321
Rp1322
(i__main__
TreeNode
p1323
(dp1324
g5
(dp1325
sg44
I00
sbsg7
(g11
S'\x1f\x00\x00\x00\x00\x00\x00\x00'
p1326
tp1327
Rp1328
(i__main__
TreeNode
p1329
(dp1330
g5
(dp1331
sg44
I00
sbsg7
(g11
S' \x00\x00\x00\x00\x00\x00\x00'
p1332
tp1333
Rp1334
(i__main__
TreeNode
p1335
(dp1336
g5
(dp1337
sg44
I00
sbsg7
(g11
S'!\x00\x00\x00\x00\x00\x00\x00'
p1338
tp1339
Rp1340
(i__main__
TreeNode
p1341
(dp1342
g5
(dp1343
sg44
I00
sbsg7
(g11
S'"\x00\x00\x00\x00\x00\x00\x00'
p1344
tp1345
Rp1346
(i__main__
TreeNode
p1347
(dp1348
g5
(dp1349
sg44
I00
sbsg7
(g11
S'#\x00\x00\x00\x00\x00\x00\x00'
p1350
tp1351
Rp1352
(i__main__
TreeNode
p1353
(dp1354
g5
(dp1355
sg44
I00
sbsg7
(g11
S'$\x00\x00\x00\x00\x00\x00\x00'
p1356
tp1357
Rp1358
(i__main__
TreeNode
p1359
(dp1360
g5
(dp1361
sg44
I01
sbsg7
(g11
S'&\x00\x00\x00\x00\x00\x00\x00'
p1362
tp1363
Rp1364
(i__main__
TreeNode
p1365
(dp1366
g5
(dp1367
sg44
I00
sbsg7
(g11
S"'\x00\x00\x00\x00\x00\x00\x00"
p1368
tp1369
Rp1370
(i__main__
TreeNode
p1371
(dp1372
g5
(dp1373
sg44
I00
sbsg7
(g11
S'(\x00\x00\x00\x00\x00\x00\x00'
p1374
tp1375
Rp1376
(i__main__
TreeNode
p1377
(dp1378
g5
(dp1379
sg44
I00
sbsg7
(g11
S'*\x00\x00\x00\x00\x00\x00\x00'
p1380
tp1381
Rp1382
(i__main__
TreeNode
p1383
(dp1384
g5
(dp1385
sg44
I00
sbsg7
(g11
S'+\x00\x00\x00\x00\x00\x00\x00'
p1386
tp1387
Rp1388
(i__main__
TreeNode
p1389
(dp1390
g5
(dp1391
sg44
I00
sbsI-1
(i__main__
TreeNode
p1392
(dp1393
g5
(dp1394
sg44
I00
sbssg44
I15
sbsg7
(g11
S'\x05\x00\x00\x00\x00\x00\x00\x00'
p1395
tp1396
Rp1397
(i__main__
TreeNode
p1398
(dp1399
g5
(dp1400
sg44
I00
sbsI-1
(i__main__
TreeNode
p1401
(dp1402
g5
(dp1403
sg44
I00
sbssg44
I167
sbsg7
(g11
S'\x03\x00\x00\x00\x00\x00\x00\x00'
p1404
tp1405
Rp1406
(i__main__
TreeNode
p1407
(dp1408
g5
(dp1409
g7
(g11
S'\x01\x00\x00\x00\x00\x00\x00\x00'
p1410
tp1411
Rp1412
(i__main__
TreeNode
p1413
(dp1414
g5
(dp1415
g7
(g11
S'\x01\x00\x00\x00\x00\x00\x00\x00'
p1416
tp1417
Rp1418
(i__main__
TreeNode
p1419
(dp1420
g5
(dp1421
g7
(g11
S'\x01\x00\x00\x00\x00\x00\x00\x00'
p1422
tp1423
Rp1424
(i__main__
TreeNode
p1425
(dp1426
g5
(dp1427
g7
(g11
S'\x01\x00\x00\x00\x00\x00\x00\x00'
p1428
tp1429
Rp1430
(i__main__
TreeNode
p1431
(dp1432
g5
(dp1433
g7
(g11
S'\x01\x00\x00\x00\x00\x00\x00\x00'
p1434
tp1435
Rp1436
(i__main__
TreeNode
p1437
(dp1438
g5
(dp1439
g7
(g11
S'\x01\x00\x00\x00\x00\x00\x00\x00'
p1440
tp1441
Rp1442
(i__main__
TreeNode
p1443
(dp1444
g5
(dp1445
sg44
I00
sbsg7
(g11
S'\x02\x00\x00\x00\x00\x00\x00\x00'
p1446
tp1447
Rp1448
(i__main__
TreeNode
p1449
(dp1450
g5
(dp1451
sg44
I01
sbsg7
(g11
S'\x03\x00\x00\x00\x00\x00\x00\x00'
p1452
tp1453
Rp1454
(i__main__
TreeNode
p1455
(dp1456
g5
(dp1457
sg44
I01
sbsI-1
(i__main__
TreeNode
p1458
(dp1459
g5
(dp1460
sg44
I00
sbssg44
I2
sbsg7
(g11
S'\x02\x00\x00\x00\x00\x00\x00\x00'
p1461
tp1462
Rp1463
(i__main__
TreeNode
p1464
(dp1465
g5
(dp1466
sg44
I00
sbsg7
(g11
S'\x03\x00\x00\x00\x00\x00\x00\x00'
p1467
tp1468
Rp1469
(i__main__
TreeNode
p1470
(dp1471
g5
(dp1472
sg44
I00
sbsg7
(g11
S'\x04\x00\x00\x00\x00\x00\x00\x00'
p1473
tp1474
Rp1475
(i__main__
TreeNode
p1476
(dp1477
g5
(dp1478
sg44
I00
sbsg7
(g11
S'\x05\x00\x00\x00\x00\x00\x00\x00'
p1479
tp1480
Rp1481
(i__main__
TreeNode
p1482
(dp1483
g5
(dp1484
sg44
I00
sbsI-1
(i__main__
TreeNode
p1485
(dp1486
g5
(dp1487
sg44
I00
sbssg44
I129
sbsg7
(g11
S'\x02\x00\x00\x00\x00\x00\x00\x00'
p1488
tp1489
Rp1490
(i__main__
TreeNode
p1491
(dp1492
g5
(dp1493
g7
(g11
S'\x01\x00\x00\x00\x00\x00\x00\x00'
p1494
tp1495
Rp1496
(i__main__
TreeNode
p1497
(dp1498
g5
(dp1499
g7
(g11
S'\x01\x00\x00\x00\x00\x00\x00\x00'
p1500
tp1501
Rp1502
(i__main__
TreeNode
p1503
(dp1504
g5
(dp1505
sg44
I00
sbsg7
(g11
S'\x02\x00\x00\x00\x00\x00\x00\x00'
p1506
tp1507
Rp1508
(i__main__
TreeNode
p1509
(dp1510
g5
(dp1511
sg44
I00
sbsg7
(g11
S'\x03\x00\x00\x00\x00\x00\x00\x00'
p1512
tp1513
Rp1514
(i__main__
TreeNode
p1515
(dp1516
g5
(dp1517
sg44
I00
sbsg7
(g11
S'\x04\x00\x00\x00\x00\x00\x00\x00'
p1518
tp1519
Rp1520
(i__main__
TreeNode
p1521
(dp1522
g5
(dp1523
sg44
I00
sbsg7
(g11
S'\x05\x00\x00\x00\x00\x00\x00\x00'
p1524
tp1525
Rp1526
(i__main__
TreeNode
p1527
(dp1528
g5
(dp1529
sg44
I00
sbsg7
(g11
S'\x06\x00\x00\x00\x00\x00\x00\x00'
p1530
tp1531
Rp1532
(i__main__
TreeNode
p1533
(dp1534
g5
(dp1535
sg44
I00
sbsg7
(g11
S'\x07\x00\x00\x00\x00\x00\x00\x00'
p1536
tp1537
Rp1538
(i__main__
TreeNode
p1539
(dp1540
g5
(dp1541
sg44
I00
sbsI-1
(i__main__
TreeNode
p1542
(dp1543
g5
(dp1544
sg44
I00
sbssg44
I87
sbsg7
(g11
S'\x06\x00\x00\x00\x00\x00\x00\x00'
p1545
tp1546
Rp1547
(i__main__
TreeNode
p1548
(dp1549
g5
(dp1550
sg44
I01
sbsg7
(g11
S'\x08\x00\x00\x00\x00\x00\x00\x00'
p1551
tp1552
Rp1553
(i__main__
TreeNode
p1554
(dp1555
g5
(dp1556
sg44
I01
sbsg7
(g11
S'\x0c\x00\x00\x00\x00\x00\x00\x00'
p1557
tp1558
Rp1559
(i__main__
TreeNode
p1560
(dp1561
g5
(dp1562
sg44
I00
sbsg7
(g11
S'\x1a\x00\x00\x00\x00\x00\x00\x00'
p1563
tp1564
Rp1565
(i__main__
TreeNode
p1566
(dp1567
g5
(dp1568
sg44
I01
sbsg7
(g11
S'\x1b\x00\x00\x00\x00\x00\x00\x00'
p1569
tp1570
Rp1571
(i__main__
TreeNode
p1572
(dp1573
g5
(dp1574
sg44
I01
sbsI-1
(i__main__
TreeNode
p1575
(dp1576
g5
(dp1577
sg44
I00
sbssg44
I15
sbsg7
(g11
S'\x03\x00\x00\x00\x00\x00\x00\x00'
p1578
tp1579
Rp1580
(i__main__
TreeNode
p1581
(dp1582
g5
(dp1583
g7
(g11
S'\x01\x00\x00\x00\x00\x00\x00\x00'
p1584
tp1585
Rp1586
(i__main__
TreeNode
p1587
(dp1588
g5
(dp1589
sg44
I00
sbsg7
(g11
S'\x02\x00\x00\x00\x00\x00\x00\x00'
p1590
tp1591
Rp1592
(i__main__
TreeNode
p1593
(dp1594
g5
(dp1595
sg44
I00
sbsg7
(g11
S'\x03\x00\x00\x00\x00\x00\x00\x00'
p1596
tp1597
Rp1598
(i__main__
TreeNode
p1599
(dp1600
g5
(dp1601
sg44
I00
sbsg7
(g11
S'\x04\x00\x00\x00\x00\x00\x00\x00'
p1602
tp1603
Rp1604
(i__main__
TreeNode
p1605
(dp1606
g5
(dp1607
sg44
I00
sbsg7
(g11
S'\x05\x00\x00\x00\x00\x00\x00\x00'
p1608
tp1609
Rp1610
(i__main__
TreeNode
p1611
(dp1612
g5
(dp1613
g7
(g11
S'\x01\x00\x00\x00\x00\x00\x00\x00'
p1614
tp1615
Rp1616
(i__main__
TreeNode
p1617
(dp1618
g5
(dp1619
sg44
I00
sbsg7
(g11
S'\x02\x00\x00\x00\x00\x00\x00\x00'
p1620
tp1621
Rp1622
(i__main__
TreeNode
p1623
(dp1624
g5
(dp1625
sg44
I00
sbsg7
(g11
S'\x03\x00\x00\x00\x00\x00\x00\x00'
p1626
tp1627
Rp1628
(i__main__
TreeNode
p1629
(dp1630
g5
(dp1631
sg44
I01
sbsg7
(g11
S'\x04\x00\x00\x00\x00\x00\x00\x00'
p1632
tp1633
Rp1634
(i__main__
TreeNode
p1635
(dp1636
g5
(dp1637
sg44
I00
sbsg7
(g11
S'\x05\x00\x00\x00\x00\x00\x00\x00'
p1638
tp1639
Rp1640
(i__main__
TreeNode
p1641
(dp1642
g5
(dp1643
sg44
I01
sbsg7
(g11
S'\x07\x00\x00\x00\x00\x00\x00\x00'
p1644
tp1645
Rp1646
(i__main__
TreeNode
p1647
(dp1648
g5
(dp1649
sg44
I01
sbsI-1
(i__main__
TreeNode
p1650
(dp1651
g5
(dp1652
sg44
I00
sbssg44
I273
sbsI-1
(i__main__
TreeNode
p1653
(dp1654
g5
(dp1655
sg44
I00
sbssg44
I84
sbsg7
(g11
S'\x04\x00\x00\x00\x00\x00\x00\x00'
p1656
tp1657
Rp1658
(i__main__
TreeNode
p1659
(dp1660
g5
(dp1661
g7
(g11
S'\x01\x00\x00\x00\x00\x00\x00\x00'
p1662
tp1663
Rp1664
(i__main__
TreeNode
p1665
(dp1666
g5
(dp1667
g7
(g11
S'\x01\x00\x00\x00\x00\x00\x00\x00'
p1668
tp1669
Rp1670
(i__main__
TreeNode
p1671
(dp1672
g5
(dp1673
sg44
I00
sbsg7
(g11
S'\x02\x00\x00\x00\x00\x00\x00\x00'
p1674
tp1675
Rp1676
(i__main__
TreeNode
p1677
(dp1678
g5
(dp1679
sg44
I00
sbsg7
(g11
S'\x03\x00\x00\x00\x00\x00\x00\x00'
p1680
tp1681
Rp1682
(i__main__
TreeNode
p1683
(dp1684
g5
(dp1685
sg44
I00
sbsg7
(g11
S'\x04\x00\x00\x00\x00\x00\x00\x00'
p1686
tp1687
Rp1688
(i__main__
TreeNode
p1689
(dp1690
g5
(dp1691
sg44
I00
sbsg7
(g11
S'\x05\x00\x00\x00\x00\x00\x00\x00'
p1692
tp1693
Rp1694
(i__main__
TreeNode
p1695
(dp1696
g5
(dp1697
sg44
I00
sbsg7
(g11
S'\x06\x00\x00\x00\x00\x00\x00\x00'
p1698
tp1699
Rp1700
(i__main__
TreeNode
p1701
(dp1702
g5
(dp1703
sg44
I01
sbsg7
(g11
S'\x07\x00\x00\x00\x00\x00\x00\x00'
p1704
tp1705
Rp1706
(i__main__
TreeNode
p1707
(dp1708
g5
(dp1709
sg44
I00
sbsI-1
(i__main__
TreeNode
p1710
(dp1711
g5
(dp1712
sg44
I00
sbssg44
I87
sbsg7
(g11
S'\x02\x00\x00\x00\x00\x00\x00\x00'
p1713
tp1714
Rp1715
(i__main__
TreeNode
p1716
(dp1717
g5
(dp1718
g7
(g11
S'\x01\x00\x00\x00\x00\x00\x00\x00'
p1719
tp1720
Rp1721
(i__main__
TreeNode
p1722
(dp1723
g5
(dp1724
g7
(g11
S'\x01\x00\x00\x00\x00\x00\x00\x00'
p1725
tp1726
Rp1727
(i__main__
TreeNode
p1728
(dp1729
g5
(dp1730
sg44
I00
sbsg7
(g11
S'\x02\x00\x00\x00\x00\x00\x00\x00'
p1731
tp1732
Rp1733
(i__main__
TreeNode
p1734
(dp1735
g5
(dp1736
sg44
I01
sbsg7
(g11
S'\x03\x00\x00\x00\x00\x00\x00\x00'
p1737
tp1738
Rp1739
(i__main__
TreeNode
p1740
(dp1741
g5
(dp1742
sg44
I01
sbsg7
(g11
S'\x04\x00\x00\x00\x00\x00\x00\x00'
p1743
tp1744
Rp1745
(i__main__
TreeNode
p1746
(dp1747
g5
(dp1748
sg44
I00
sbsg7
(g11
S'\x05\x00\x00\x00\x00\x00\x00\x00'
p1749
tp1750
Rp1751
(i__main__
TreeNode
p1752
(dp1753
g5
(dp1754
sg44
I00
sbsI-1
(i__main__
TreeNode
p1755
(dp1756
g5
(dp1757
sg44
I00
sbssg44
I81
sbsg7
(g11
S'\x02\x00\x00\x00\x00\x00\x00\x00'
p1758
tp1759
Rp1760
(i__main__
TreeNode
p1761
(dp1762
g5
(dp1763
sg44
I00
sbsg7
(g11
S'\x03\x00\x00\x00\x00\x00\x00\x00'
p1764
tp1765
Rp1766
(i__main__
TreeNode
p1767
(dp1768
g5
(dp1769
g7
(g11
S'\x01\x00\x00\x00\x00\x00\x00\x00'
p1770
tp1771
Rp1772
(i__main__
TreeNode
p1773
(dp1774
g5
(dp1775
sg44
I01
sbsg7
(g11
S'\x02\x00\x00\x00\x00\x00\x00\x00'
p1776
tp1777
Rp1778
(i__main__
TreeNode
p1779
(dp1780
g5
(dp1781
sg44
I00
sbsI-1
(i__main__
TreeNode
p1782
(dp1783
g5
(dp1784
sg44
I00
sbssg44
I85
sbsg7
(g11
S'\x04\x00\x00\x00\x00\x00\x00\x00'
p1785
tp1786
Rp1787
(i__main__
TreeNode
p1788
(dp1789
g5
(dp1790
g7
(g11
S'\x01\x00\x00\x00\x00\x00\x00\x00'
p1791
tp1792
Rp1793
(i__main__
TreeNode
p1794
(dp1795
g5
(dp1796
sg44
I00
sbsg7
(g11
S'\x02\x00\x00\x00\x00\x00\x00\x00'
p1797
tp1798
Rp1799
(i__main__
TreeNode
p1800
(dp1801
g5
(dp1802
g7
(g11
S'\x01\x00\x00\x00\x00\x00\x00\x00'
p1803
tp1804
Rp1805
(i__main__
TreeNode
p1806
(dp1807
g5
(dp1808
g7
(g11
S'\x02\x00\x00\x00\x00\x00\x00\x00'
p1809
tp1810
Rp1811
(i__main__
TreeNode
p1812
(dp1813
g5
(dp1814
sg44
I00
sbsg7
(g11
S'\x04\x00\x00\x00\x00\x00\x00\x00'
p1815
tp1816
Rp1817
(i__main__
TreeNode
p1818
(dp1819
g5
(dp1820
sg44
I01
sbsI-1
(i__main__
TreeNode
p1821
(dp1822
g5
(dp1823
sg44
I01
sbssg44
I128
sbsg7
(g11
S'\x02\x00\x00\x00\x00\x00\x00\x00'
p1824
tp1825
Rp1826
(i__main__
TreeNode
p1827
(dp1828
g5
(dp1829
sg44
I00
sbsg7
(g11
S'\x05\x00\x00\x00\x00\x00\x00\x00'
p1830
tp1831
Rp1832
(i__main__
TreeNode
p1833
(dp1834
g5
(dp1835
sg44
I00
sbsI-1
(i__main__
TreeNode
p1836
(dp1837
g5
(dp1838
sg44
I01
sbssg44
I84
sbsg7
(g11
S'\x03\x00\x00\x00\x00\x00\x00\x00'
p1839
tp1840
Rp1841
(i__main__
TreeNode
p1842
(dp1843
g5
(dp1844
sg44
I00
sbsg7
(g11
S'\x04\x00\x00\x00\x00\x00\x00\x00'
p1845
tp1846
Rp1847
(i__main__
TreeNode
p1848
(dp1849
g5
(dp1850
sg44
I00
sbsg7
(g11
S'\x05\x00\x00\x00\x00\x00\x00\x00'
p1851
tp1852
Rp1853
(i__main__
TreeNode
p1854
(dp1855
g5
(dp1856
sg44
I00
sbsg7
(g11
S'\x06\x00\x00\x00\x00\x00\x00\x00'
p1857
tp1858
Rp1859
(i__main__
TreeNode
p1860
(dp1861
g5
(dp1862
g7
(g11
S'\x02\x00\x00\x00\x00\x00\x00\x00'
p1863
tp1864
Rp1865
(i__main__
TreeNode
p1866
(dp1867
g5
(dp1868
sg44
I01
sbsg7
(g11
S'\x05\x00\x00\x00\x00\x00\x00\x00'
p1869
tp1870
Rp1871
(i__main__
TreeNode
p1872
(dp1873
g5
(dp1874
sg44
I00
sbsI-1
(i__main__
TreeNode
p1875
(dp1876
g5
(dp1877
sg44
I00
sbssg44
I127
sbsg7
(g11
S'\x07\x00\x00\x00\x00\x00\x00\x00'
p1878
tp1879
Rp1880
(i__main__
TreeNode
p1881
(dp1882
g5
(dp1883
sg44
I00
sbsI-1
(i__main__
TreeNode
p1884
(dp1885
g5
(dp1886
sg44
I00
sbssg44
I87
sbsg7
(g11
S'\x05\x00\x00\x00\x00\x00\x00\x00'
p1887
tp1888
Rp1889
(i__main__
TreeNode
p1890
(dp1891
g5
(dp1892
g7
(g11
S'\x01\x00\x00\x00\x00\x00\x00\x00'
p1893
tp1894
Rp1895
(i__main__
TreeNode
p1896
(dp1897
g5
(dp1898
sg44
I00
sbsg7
(g11
S'\x03\x00\x00\x00\x00\x00\x00\x00'
p1899
tp1900
Rp1901
(i__main__
TreeNode
p1902
(dp1903
g5
(dp1904
sg44
I00
sbsg7
(g11
S'\x04\x00\x00\x00\x00\x00\x00\x00'
p1905
tp1906
Rp1907
(i__main__
TreeNode
p1908
(dp1909
g5
(dp1910
g7
(g11
S'\x03\x00\x00\x00\x00\x00\x00\x00'
p1911
tp1912
Rp1913
(i__main__
TreeNode
p1914
(dp1915
g5
(dp1916
sg44
I00
sbsg7
(g11
S'\x05\x00\x00\x00\x00\x00\x00\x00'
p1917
tp1918
Rp1919
(i__main__
TreeNode
p1920
(dp1921
g5
(dp1922
sg44
I01
sbsI-1
(i__main__
TreeNode
p1923
(dp1924
g5
(dp1925
sg44
I00
sbssg44
I88
sbsg7
(g11
S'\x05\x00\x00\x00\x00\x00\x00\x00'
p1926
tp1927
Rp1928
(i__main__
TreeNode
p1929
(dp1930
g5
(dp1931
sg44
I00
sbsg7
(g11
S'\x06\x00\x00\x00\x00\x00\x00\x00'
p1932
tp1933
Rp1934
(i__main__
TreeNode
p1935
(dp1936
g5
(dp1937
sg44
I00
sbsI-1
(i__main__
TreeNode
p1938
(dp1939
g5
(dp1940
sg44
I00
sbssg44
I87
sbsg7
(g11
S'\x06\x00\x00\x00\x00\x00\x00\x00'
p1941
tp1942
Rp1943
(i__main__
TreeNode
p1944
(dp1945
g5
(dp1946
sg44
I00
sbsg7
(g11
S'\x07\x00\x00\x00\x00\x00\x00\x00'
p1947
tp1948
Rp1949
(i__main__
TreeNode
p1950
(dp1951
g5
(dp1952
sg44
I00
sbsI-1
(i__main__
TreeNode
p1953
(dp1954
g5
(dp1955
sg44
I00
sbssg44
I273
sbsg7
(g11
S'\x03\x00\x00\x00\x00\x00\x00\x00'
p1956
tp1957
Rp1958
(i__main__
TreeNode
p1959
(dp1960
g5
(dp1961
sg44
I00
sbsg7
(g11
S'\x04\x00\x00\x00\x00\x00\x00\x00'
p1962
tp1963
Rp1964
(i__main__
TreeNode
p1965
(dp1966
g5
(dp1967
sg44
I00
sbsg7
(g11
S'\x05\x00\x00\x00\x00\x00\x00\x00'
p1968
tp1969
Rp1970
(i__main__
TreeNode
p1971
(dp1972
g5
(dp1973
g7
(g11
S'\x01\x00\x00\x00\x00\x00\x00\x00'
p1974
tp1975
Rp1976
(i__main__
TreeNode
p1977
(dp1978
g5
(dp1979
sg44
I01
sbsg7
(g11
S'\x02\x00\x00\x00\x00\x00\x00\x00'
p1980
tp1981
Rp1982
(i__main__
TreeNode
p1983
(dp1984
g5
(dp1985
sg44
I00
sbsg7
(g11
S'\x03\x00\x00\x00\x00\x00\x00\x00'
p1986
tp1987
Rp1988
(i__main__
TreeNode
p1989
(dp1990
g5
(dp1991
sg44
I00
sbsg7
(g11
S'\x04\x00\x00\x00\x00\x00\x00\x00'
p1992
tp1993
Rp1994
(i__main__
TreeNode
p1995
(dp1996
g5
(dp1997
sg44
I00
sbsg7
(g11
S'\x05\x00\x00\x00\x00\x00\x00\x00'
p1998
tp1999
Rp2000
(i__main__
TreeNode
p2001
(dp2002
g5
(dp2003
sg44
I00
sbsI-1
(i__main__
TreeNode
p2004
(dp2005
g5
(dp2006
sg44
I00
sbssg44
I81
sbsI-1
(i__main__
TreeNode
p2007
(dp2008
g5
(dp2009
sg44
I00
sbssg44
I129
sbsg7
(g11
S'\x05\x00\x00\x00\x00\x00\x00\x00'
p2010
tp2011
Rp2012
(i__main__
TreeNode
p2013
(dp2014
g5
(dp2015
sg44
I00
sbsI-1
(i__main__
TreeNode
p2016
(dp2017
g5
(dp2018
sg44
I00
sbssg44
I82
sbsg7
(g11
S'\x02\x00\x00\x00\x00\x00\x00\x00'
p2019
tp2020
Rp2021
(i__main__
TreeNode
p2022
(dp2023
g5
(dp2024
g7
(g11
S'\x01\x00\x00\x00\x00\x00\x00\x00'
p2025
tp2026
Rp2027
(i__main__
TreeNode
p2028
(dp2029
g5
(dp2030
g7
(g11
S'\x01\x00\x00\x00\x00\x00\x00\x00'
p2031
tp2032
Rp2033
(i__main__
TreeNode
p2034
(dp2035
g5
(dp2036
sg44
I00
sbsg7
(g11
S'\x02\x00\x00\x00\x00\x00\x00\x00'
p2037
tp2038
Rp2039
(i__main__
TreeNode
p2040
(dp2041
g5
(dp2042
sg44
I00
sbsg7
(g11
S'\x06\x00\x00\x00\x00\x00\x00\x00'
p2043
tp2044
Rp2045
(i__main__
TreeNode
p2046
(dp2047
g5
(dp2048
sg44
I01
sbsI-1
(i__main__
TreeNode
p2049
(dp2050
g5
(dp2051
sg44
I00
sbssg44
I270
sbsg7
(g11
S'\x02\x00\x00\x00\x00\x00\x00\x00'
p2052
tp2053
Rp2054
(i__main__
TreeNode
p2055
(dp2056
g5
(dp2057
sg44
I00
sbsg7
(g11
S'\x03\x00\x00\x00\x00\x00\x00\x00'
p2058
tp2059
Rp2060
(i__main__
TreeNode
p2061
(dp2062
g5
(dp2063
g7
(g11
S'\x01\x00\x00\x00\x00\x00\x00\x00'
p2064
tp2065
Rp2066
(i__main__
TreeNode
p2067
(dp2068
g5
(dp2069
sg44
I00
sbsg7
(g11
S'\x02\x00\x00\x00\x00\x00\x00\x00'
p2070
tp2071
Rp2072
(i__main__
TreeNode
p2073
(dp2074
g5
(dp2075
sg44
I01
sbsg7
(g11
S'\x03\x00\x00\x00\x00\x00\x00\x00'
p2076
tp2077
Rp2078
(i__main__
TreeNode
p2079
(dp2080
g5
(dp2081
g7
(g11
S'\x01\x00\x00\x00\x00\x00\x00\x00'
p2082
tp2083
Rp2084
(i__main__
TreeNode
p2085
(dp2086
g5
(dp2087
sg44
I00
sbsg7
(g11
S'\x02\x00\x00\x00\x00\x00\x00\x00'
p2088
tp2089
Rp2090
(i__main__
TreeNode
p2091
(dp2092
g5
(dp2093
sg44
I00
sbsg7
(g11
S'\x03\x00\x00\x00\x00\x00\x00\x00'
p2094
tp2095
Rp2096
(i__main__
TreeNode
p2097
(dp2098
g5
(dp2099
sg44
I00
sbsg7
(g11
S'\x04\x00\x00\x00\x00\x00\x00\x00'
p2100
tp2101
Rp2102
(i__main__
TreeNode
p2103
(dp2104
g5
(dp2105
sg44
I01
sbsg7
(g11
S'\x05\x00\x00\x00\x00\x00\x00\x00'
p2106
tp2107
Rp2108
(i__main__
TreeNode
p2109
(dp2110
g5
(dp2111
sg44
I00
sbsI-1
(i__main__
TreeNode
p2112
(dp2113
g5
(dp2114
sg44
I00
sbssg44
I88
sbsg7
(g11
S'\x04\x00\x00\x00\x00\x00\x00\x00'
p2115
tp2116
Rp2117
(i__main__
TreeNode
p2118
(dp2119
g5
(dp2120
g7
(g11
S'\x01\x00\x00\x00\x00\x00\x00\x00'
p2121
tp2122
Rp2123
(i__main__
TreeNode
p2124
(dp2125
g5
(dp2126
sg44
I00
sbsg7
(g11
S'\x02\x00\x00\x00\x00\x00\x00\x00'
p2127
tp2128
Rp2129
(i__main__
TreeNode
p2130
(dp2131
g5
(dp2132
sg44
I00
sbsg7
(g11
S'\x04\x00\x00\x00\x00\x00\x00\x00'
p2133
tp2134
Rp2135
(i__main__
TreeNode
p2136
(dp2137
g5
(dp2138
sg44
I01
sbsI-1
(i__main__
TreeNode
p2139
(dp2140
g5
(dp2141
sg44
I00
sbssg44
I84
sbsg7
(g11
S'\x05\x00\x00\x00\x00\x00\x00\x00'
p2142
tp2143
Rp2144
(i__main__
TreeNode
p2145
(dp2146
g5
(dp2147
sg44
I00
sbsI-1
(i__main__
TreeNode
p2148
(dp2149
g5
(dp2150
sg44
I00
sbssg44
I128
sbsg7
(g11
S'\x04\x00\x00\x00\x00\x00\x00\x00'
p2151
tp2152
Rp2153
(i__main__
TreeNode
p2154
(dp2155
g5
(dp2156
sg44
I00
sbsg7
(g11
S'\x05\x00\x00\x00\x00\x00\x00\x00'
p2157
tp2158
Rp2159
(i__main__
TreeNode
p2160
(dp2161
g5
(dp2162
g7
(g11
S'\x01\x00\x00\x00\x00\x00\x00\x00'
p2163
tp2164
Rp2165
(i__main__
TreeNode
p2166
(dp2167
g5
(dp2168
sg44
I00
sbsg7
(g11
S'\x02\x00\x00\x00\x00\x00\x00\x00'
p2169
tp2170
Rp2171
(i__main__
TreeNode
p2172
(dp2173
g5
(dp2174
sg44
I00
sbsg7
(g11
S'\x03\x00\x00\x00\x00\x00\x00\x00'
p2175
tp2176
Rp2177
(i__main__
TreeNode
p2178
(dp2179
g5
(dp2180
sg44
I00
sbsg7
(g11
S'\x04\x00\x00\x00\x00\x00\x00\x00'
p2181
tp2182
Rp2183
(i__main__
TreeNode
p2184
(dp2185
g5
(dp2186
sg44
I00
sbsg7
(g11
S'\x05\x00\x00\x00\x00\x00\x00\x00'
p2187
tp2188
Rp2189
(i__main__
TreeNode
p2190
(dp2191
g5
(dp2192
g7
(g11
S'\x01\x00\x00\x00\x00\x00\x00\x00'
p2193
tp2194
Rp2195
(i__main__
TreeNode
p2196
(dp2197
g5
(dp2198
sg44
I00
sbsg7
(g11
S'\x02\x00\x00\x00\x00\x00\x00\x00'
p2199
tp2200
Rp2201
(i__main__
TreeNode
p2202
(dp2203
g5
(dp2204
sg44
I00
sbsg7
(g11
S'\x03\x00\x00\x00\x00\x00\x00\x00'
p2205
tp2206
Rp2207
(i__main__
TreeNode
p2208
(dp2209
g5
(dp2210
sg44
I00
sbsg7
(g11
S'\x04\x00\x00\x00\x00\x00\x00\x00'
p2211
tp2212
Rp2213
(i__main__
TreeNode
p2214
(dp2215
g5
(dp2216
sg44
I00
sbsg7
(g11
S'\x05\x00\x00\x00\x00\x00\x00\x00'
p2217
tp2218
Rp2219
(i__main__
TreeNode
p2220
(dp2221
g5
(dp2222
sg44
I00
sbsI-1
(i__main__
TreeNode
p2223
(dp2224
g5
(dp2225
sg44
I00
sbssg44
I88
sbsg7
(g11
S'\x06\x00\x00\x00\x00\x00\x00\x00'
p2226
tp2227
Rp2228
(i__main__
TreeNode
p2229
(dp2230
g5
(dp2231
g7
(g11
S'\x01\x00\x00\x00\x00\x00\x00\x00'
p2232
tp2233
Rp2234
(i__main__
TreeNode
p2235
(dp2236
g5
(dp2237
sg44
I00
sbsg7
(g11
S'\x03\x00\x00\x00\x00\x00\x00\x00'
p2238
tp2239
Rp2240
(i__main__
TreeNode
p2241
(dp2242
g5
(dp2243
sg44
I01
sbsg7
(g11
S'\x04\x00\x00\x00\x00\x00\x00\x00'
p2244
tp2245
Rp2246
(i__main__
TreeNode
p2247
(dp2248
g5
(dp2249
sg44
I00
sbsI-1
(i__main__
TreeNode
p2250
(dp2251
g5
(dp2252
sg44
I00
sbssg44
I84
sbsg7
(g11
S'\x07\x00\x00\x00\x00\x00\x00\x00'
p2253
tp2254
Rp2255
(i__main__
TreeNode
p2256
(dp2257
g5
(dp2258
sg44
I00
sbsI-1
(i__main__
TreeNode
p2259
(dp2260
g5
(dp2261
sg44
I00
sbssg44
I87
sbsI-1
(i__main__
TreeNode
p2262
(dp2263
g5
(dp2264
sg44
I00
sbssg44
I81
sbsg7
(g11
S'\x03\x00\x00\x00\x00\x00\x00\x00'
p2265
tp2266
Rp2267
(i__main__
TreeNode
p2268
(dp2269
g5
(dp2270
g7
(g11
S'\x01\x00\x00\x00\x00\x00\x00\x00'
p2271
tp2272
Rp2273
(i__main__
TreeNode
p2274
(dp2275
g5
(dp2276
sg44
I00
sbsg7
(g11
S'\x02\x00\x00\x00\x00\x00\x00\x00'
p2277
tp2278
Rp2279
(i__main__
TreeNode
p2280
(dp2281
g5
(dp2282
sg44
I00
sbsg7
(g11
S'\x03\x00\x00\x00\x00\x00\x00\x00'
p2283
tp2284
Rp2285
(i__main__
TreeNode
p2286
(dp2287
g5
(dp2288
g7
(g11
S'\x01\x00\x00\x00\x00\x00\x00\x00'
p2289
tp2290
Rp2291
(i__main__
TreeNode
p2292
(dp2293
g5
(dp2294
sg44
I00
sbsg7
(g11
S'\x02\x00\x00\x00\x00\x00\x00\x00'
p2295
tp2296
Rp2297
(i__main__
TreeNode
p2298
(dp2299
g5
(dp2300
sg44
I00
sbsg7
(g11
S'\x03\x00\x00\x00\x00\x00\x00\x00'
p2301
tp2302
Rp2303
(i__main__
TreeNode
p2304
(dp2305
g5
(dp2306
sg44
I00
sbsg7
(g11
S'\x04\x00\x00\x00\x00\x00\x00\x00'
p2307
tp2308
Rp2309
(i__main__
TreeNode
p2310
(dp2311
g5
(dp2312
sg44
I00
sbsg7
(g11
S'\x05\x00\x00\x00\x00\x00\x00\x00'
p2313
tp2314
Rp2315
(i__main__
TreeNode
p2316
(dp2317
g5
(dp2318
sg44
I00
sbsI-1
(i__main__
TreeNode
p2319
(dp2320
g5
(dp2321
sg44
I00
sbssg44
I81
sbsg7
(g11
S'\x04\x00\x00\x00\x00\x00\x00\x00'
p2322
tp2323
Rp2324
(i__main__
TreeNode
p2325
(dp2326
g5
(dp2327
g7
(g11
S'\x01\x00\x00\x00\x00\x00\x00\x00'
p2328
tp2329
Rp2330
(i__main__
TreeNode
p2331
(dp2332
g5
(dp2333
sg44
I01
sbsg7
(g11
S'\x02\x00\x00\x00\x00\x00\x00\x00'
p2334
tp2335
Rp2336
(i__main__
TreeNode
p2337
(dp2338
g5
(dp2339
sg44
I00
sbsg7
(g11
S'\x03\x00\x00\x00\x00\x00\x00\x00'
p2340
tp2341
Rp2342
(i__main__
TreeNode
p2343
(dp2344
g5
(dp2345
sg44
I00
sbsg7
(g11
S'\x04\x00\x00\x00\x00\x00\x00\x00'
p2346
tp2347
Rp2348
(i__main__
TreeNode
p2349
(dp2350
g5
(dp2351
sg44
I00
sbsg7
(g11
S'\x05\x00\x00\x00\x00\x00\x00\x00'
p2352
tp2353
Rp2354
(i__main__
TreeNode
p2355
(dp2356
g5
(dp2357
sg44
I00
sbsI-1
(i__main__
TreeNode
p2358
(dp2359
g5
(dp2360
sg44
I00
sbssg44
I81
sbsg7
(g11
S'\x05\x00\x00\x00\x00\x00\x00\x00'
p2361
tp2362
Rp2363
(i__main__
TreeNode
p2364
(dp2365
g5
(dp2366
sg44
I00
sbsI-1
(i__main__
TreeNode
p2367
(dp2368
g5
(dp2369
sg44
I00
sbssg44
I84
sbsg7
(g11
S'\x04\x00\x00\x00\x00\x00\x00\x00'
p2370
tp2371
Rp2372
(i__main__
TreeNode
p2373
(dp2374
g5
(dp2375
g7
(g11
S'\x01\x00\x00\x00\x00\x00\x00\x00'
p2376
tp2377
Rp2378
(i__main__
TreeNode
p2379
(dp2380
g5
(dp2381
sg44
I00
sbsg7
(g11
S'\x02\x00\x00\x00\x00\x00\x00\x00'
p2382
tp2383
Rp2384
(i__main__
TreeNode
p2385
(dp2386
g5
(dp2387
sg44
I00
sbsg7
(g11
S'\x03\x00\x00\x00\x00\x00\x00\x00'
p2388
tp2389
Rp2390
(i__main__
TreeNode
p2391
(dp2392
g5
(dp2393
g7
(g11
S'\x01\x00\x00\x00\x00\x00\x00\x00'
p2394
tp2395
Rp2396
(i__main__
TreeNode
p2397
(dp2398
g5
(dp2399
sg44
I01
sbsg7
(g11
S'\x02\x00\x00\x00\x00\x00\x00\x00'
p2400
tp2401
Rp2402
(i__main__
TreeNode
p2403
(dp2404
g5
(dp2405
sg44
I01
sbsg7
(g11
S'\x03\x00\x00\x00\x00\x00\x00\x00'
p2406
tp2407
Rp2408
(i__main__
TreeNode
p2409
(dp2410
g5
(dp2411
sg44
I00
sbsg7
(g11
S'\x04\x00\x00\x00\x00\x00\x00\x00'
p2412
tp2413
Rp2414
(i__main__
TreeNode
p2415
(dp2416
g5
(dp2417
sg44
I00
sbsg7
(g11
S'\x05\x00\x00\x00\x00\x00\x00\x00'
p2418
tp2419
Rp2420
(i__main__
TreeNode
p2421
(dp2422
g5
(dp2423
sg44
I00
sbsI-1
(i__main__
TreeNode
p2424
(dp2425
g5
(dp2426
sg44
I00
sbssg44
I128
sbsg7
(g11
S'\x04\x00\x00\x00\x00\x00\x00\x00'
p2427
tp2428
Rp2429
(i__main__
TreeNode
p2430
(dp2431
g5
(dp2432
sg44
I00
sbsg7
(g11
S'\x05\x00\x00\x00\x00\x00\x00\x00'
p2433
tp2434
Rp2435
(i__main__
TreeNode
p2436
(dp2437
g5
(dp2438
sg44
I00
sbsg7
(g11
S'\x06\x00\x00\x00\x00\x00\x00\x00'
p2439
tp2440
Rp2441
(i__main__
TreeNode
p2442
(dp2443
g5
(dp2444
sg44
I00
sbsg7
(g11
S'\x07\x00\x00\x00\x00\x00\x00\x00'
p2445
tp2446
Rp2447
(i__main__
TreeNode
p2448
(dp2449
g5
(dp2450
sg44
I00
sbsI-1
(i__main__
TreeNode
p2451
(dp2452
g5
(dp2453
sg44
I00
sbssg44
I273
sbsg7
(g11
S'\x05\x00\x00\x00\x00\x00\x00\x00'
p2454
tp2455
Rp2456
(i__main__
TreeNode
p2457
(dp2458
g5
(dp2459
sg44
I00
sbsg7
(g11
S'\x06\x00\x00\x00\x00\x00\x00\x00'
p2460
tp2461
Rp2462
(i__main__
TreeNode
p2463
(dp2464
g5
(dp2465
sg44
I00
sbsI-1
(i__main__
TreeNode
p2466
(dp2467
g5
(dp2468
sg44
I00
sbssg44
I272
sbsg7
(g11
S'\x02\x00\x00\x00\x00\x00\x00\x00'
p2469
tp2470
Rp2471
(i__main__
TreeNode
p2472
(dp2473
g5
(dp2474
g7
(g11
S'\x01\x00\x00\x00\x00\x00\x00\x00'
p2475
tp2476
Rp2477
(i__main__
TreeNode
p2478
(dp2479
g5
(dp2480
g7
(g11
S'\x01\x00\x00\x00\x00\x00\x00\x00'
p2481
tp2482
Rp2483
(i__main__
TreeNode
p2484
(dp2485
g5
(dp2486
g7
(g11
S'\x01\x00\x00\x00\x00\x00\x00\x00'
p2487
tp2488
Rp2489
(i__main__
TreeNode
p2490
(dp2491
g5
(dp2492
sg44
I00
sbsg7
(g11
S'\x02\x00\x00\x00\x00\x00\x00\x00'
p2493
tp2494
Rp2495
(i__main__
TreeNode
p2496
(dp2497
g5
(dp2498
sg44
I00
sbsg7
(g11
S'\x03\x00\x00\x00\x00\x00\x00\x00'
p2499
tp2500
Rp2501
(i__main__
TreeNode
p2502
(dp2503
g5
(dp2504
sg44
I00
sbsg7
(g11
S'\x04\x00\x00\x00\x00\x00\x00\x00'
p2505
tp2506
Rp2507
(i__main__
TreeNode
p2508
(dp2509
g5
(dp2510
g7
(g11
S'\x01\x00\x00\x00\x00\x00\x00\x00'
p2511
tp2512
Rp2513
(i__main__
TreeNode
p2514
(dp2515
g5
(dp2516
sg44
I00
sbsg7
(g11
S'\x02\x00\x00\x00\x00\x00\x00\x00'
p2517
tp2518
Rp2519
(i__main__
TreeNode
p2520
(dp2521
g5
(dp2522
sg44
I00
sbsg7
(g11
S'\x03\x00\x00\x00\x00\x00\x00\x00'
p2523
tp2524
Rp2525
(i__main__
TreeNode
p2526
(dp2527
g5
(dp2528
sg44
I00
sbsg7
(g11
S'\x05\x00\x00\x00\x00\x00\x00\x00'
p2529
tp2530
Rp2531
(i__main__
TreeNode
p2532
(dp2533
g5
(dp2534
sg44
I01
sbsI-1
(i__main__
TreeNode
p2535
(dp2536
g5
(dp2537
sg44
I00
sbssg44
I85
sbsg7
(g11
S'\x05\x00\x00\x00\x00\x00\x00\x00'
p2538
tp2539
Rp2540
(i__main__
TreeNode
p2541
(dp2542
g5
(dp2543
sg44
I00
sbsI-1
(i__main__
TreeNode
p2544
(dp2545
g5
(dp2546
sg44
I00
sbssg44
I81
sbsg7
(g11
S'\x02\x00\x00\x00\x00\x00\x00\x00'
p2547
tp2548
Rp2549
(i__main__
TreeNode
p2550
(dp2551
g5
(dp2552
sg44
I00
sbsg7
(g11
S'\x03\x00\x00\x00\x00\x00\x00\x00'
p2553
tp2554
Rp2555
(i__main__
TreeNode
p2556
(dp2557
g5
(dp2558
sg44
I00
sbsg7
(g11
S'\x04\x00\x00\x00\x00\x00\x00\x00'
p2559
tp2560
Rp2561
(i__main__
TreeNode
p2562
(dp2563
g5
(dp2564
g7
(g11
S'\x01\x00\x00\x00\x00\x00\x00\x00'
p2565
tp2566
Rp2567
(i__main__
TreeNode
p2568
(dp2569
g5
(dp2570
sg44
I01
sbsg7
(g11
S'\x02\x00\x00\x00\x00\x00\x00\x00'
p2571
tp2572
Rp2573
(i__main__
TreeNode
p2574
(dp2575
g5
(dp2576
sg44
I01
sbsg7
(g11
S'\x03\x00\x00\x00\x00\x00\x00\x00'
p2577
tp2578
Rp2579
(i__main__
TreeNode
p2580
(dp2581
g5
(dp2582
sg44
I00
sbsg7
(g11
S'\x04\x00\x00\x00\x00\x00\x00\x00'
p2583
tp2584
Rp2585
(i__main__
TreeNode
p2586
(dp2587
g5
(dp2588
sg44
I00
sbsg7
(g11
S'\x05\x00\x00\x00\x00\x00\x00\x00'
p2589
tp2590
Rp2591
(i__main__
TreeNode
p2592
(dp2593
g5
(dp2594
sg44
I00
sbsg7
(g11
S'\x06\x00\x00\x00\x00\x00\x00\x00'
p2595
tp2596
Rp2597
(i__main__
TreeNode
p2598
(dp2599
g5
(dp2600
sg44
I00
sbsg7
(g11
S'\x07\x00\x00\x00\x00\x00\x00\x00'
p2601
tp2602
Rp2603
(i__main__
TreeNode
p2604
(dp2605
g5
(dp2606
sg44
I00
sbsI-1
(i__main__
TreeNode
p2607
(dp2608
g5
(dp2609
sg44
I00
sbssg44
I87
sbsg7
(g11
S'\x05\x00\x00\x00\x00\x00\x00\x00'
p2610
tp2611
Rp2612
(i__main__
TreeNode
p2613
(dp2614
g5
(dp2615
g7
(g11
S'\x01\x00\x00\x00\x00\x00\x00\x00'
p2616
tp2617
Rp2618
(i__main__
TreeNode
p2619
(dp2620
g5
(dp2621
g7
(g11
S'\x01\x00\x00\x00\x00\x00\x00\x00'
p2622
tp2623
Rp2624
(i__main__
TreeNode
p2625
(dp2626
g5
(dp2627
g7
(g11
S'\x01\x00\x00\x00\x00\x00\x00\x00'
p2628
tp2629
Rp2630
(i__main__
TreeNode
p2631
(dp2632
g5
(dp2633
sg44
I00
sbsg7
(g11
S'\x02\x00\x00\x00\x00\x00\x00\x00'
p2634
tp2635
Rp2636
(i__main__
TreeNode
p2637
(dp2638
g5
(dp2639
sg44
I00
sbsg7
(g11
S'\x04\x00\x00\x00\x00\x00\x00\x00'
p2640
tp2641
Rp2642
(i__main__
TreeNode
p2643
(dp2644
g5
(dp2645
sg44
I00
sbsI-1
(i__main__
TreeNode
p2646
(dp2647
g5
(dp2648
sg44
I00
sbssg44
I272
sbsg7
(g11
S'\x02\x00\x00\x00\x00\x00\x00\x00'
p2649
tp2650
Rp2651
(i__main__
TreeNode
p2652
(dp2653
g5
(dp2654
sg44
I00
sbsI-1
(i__main__
TreeNode
p2655
(dp2656
g5
(dp2657
sg44
I00
sbssg44
I177
sbsg7
(g11
S'\x02\x00\x00\x00\x00\x00\x00\x00'
p2658
tp2659
Rp2660
(i__main__
TreeNode
p2661
(dp2662
g5
(dp2663
sg44
I01
sbsI-1
(i__main__
TreeNode
p2664
(dp2665
g5
(dp2666
sg44
I00
sbssg44
I174
sbsg7
(g11
S'\x06\x00\x00\x00\x00\x00\x00\x00'
p2667
tp2668
Rp2669
(i__main__
TreeNode
p2670
(dp2671
g5
(dp2672
g7
(g11
S'\x01\x00\x00\x00\x00\x00\x00\x00'
p2673
tp2674
Rp2675
(i__main__
TreeNode
p2676
(dp2677
g5
(dp2678
sg44
I00
sbsg7
(g11
S'\x02\x00\x00\x00\x00\x00\x00\x00'
p2679
tp2680
Rp2681
(i__main__
TreeNode
p2682
(dp2683
g5
(dp2684
sg44
I00
sbsI-1
(i__main__
TreeNode
p2685
(dp2686
g5
(dp2687
sg44
I00
sbssg44
I185
sbsg7
(g11
S'\x07\x00\x00\x00\x00\x00\x00\x00'
p2688
tp2689
Rp2690
(i__main__
TreeNode
p2691
(dp2692
g5
(dp2693
sg44
I00
sbsI-1
(i__main__
TreeNode
p2694
(dp2695
g5
(dp2696
sg44
I00
sbssg44
I273
sbsg7
(g11
S'\x02\x00\x00\x00\x00\x00\x00\x00'
p2697
tp2698
Rp2699
(i__main__
TreeNode
p2700
(dp2701
g5
(dp2702
sg44
I00
sbsg7
(g11
S'\x03\x00\x00\x00\x00\x00\x00\x00'
p2703
tp2704
Rp2705
(i__main__
TreeNode
p2706
(dp2707
g5
(dp2708
g7
(g11
S'\x02\x00\x00\x00\x00\x00\x00\x00'
p2709
tp2710
Rp2711
(i__main__
TreeNode
p2712
(dp2713
g5
(dp2714
g7
(g11
S'\x03\x00\x00\x00\x00\x00\x00\x00'
p2715
tp2716
Rp2717
(i__main__
TreeNode
p2718
(dp2719
g5
(dp2720
sg44
I01
sbsg7
(g11
S'\x05\x00\x00\x00\x00\x00\x00\x00'
p2721
tp2722
Rp2723
(i__main__
TreeNode
p2724
(dp2725
g5
(dp2726
sg44
I00
sbsI-1
(i__main__
TreeNode
p2727
(dp2728
g5
(dp2729
sg44
I01
sbssg44
I163
sbsg7
(g11
S'\x03\x00\x00\x00\x00\x00\x00\x00'
p2730
tp2731
Rp2732
(i__main__
TreeNode
p2733
(dp2734
g5
(dp2735
sg44
I00
sbsg7
(g11
S'\x04\x00\x00\x00\x00\x00\x00\x00'
p2736
tp2737
Rp2738
(i__main__
TreeNode
p2739
(dp2740
g5
(dp2741
sg44
I00
sbsI-1
(i__main__
TreeNode
p2742
(dp2743
g5
(dp2744
sg44
I00
sbssg44
I86
sbsg7
(g11
S'\x04\x00\x00\x00\x00\x00\x00\x00'
p2745
tp2746
Rp2747
(i__main__
TreeNode
p2748
(dp2749
g5
(dp2750
sg44
I01
sbsg7
(g11
S'\x05\x00\x00\x00\x00\x00\x00\x00'
p2751
tp2752
Rp2753
(i__main__
TreeNode
p2754
(dp2755
g5
(dp2756
g7
(g11
S'\x02\x00\x00\x00\x00\x00\x00\x00'
p2757
tp2758
Rp2759
(i__main__
TreeNode
p2760
(dp2761
g5
(dp2762
g7
(g11
S'\x01\x00\x00\x00\x00\x00\x00\x00'
p2763
tp2764
Rp2765
(i__main__
TreeNode
p2766
(dp2767
g5
(dp2768
sg44
I01
sbsg7
(g11
S'\x04\x00\x00\x00\x00\x00\x00\x00'
p2769
tp2770
Rp2771
(i__main__
TreeNode
p2772
(dp2773
g5
(dp2774
sg44
I00
sbsI-1
(i__main__
TreeNode
p2775
(dp2776
g5
(dp2777
sg44
I01
sbssg44
I81
sbsg7
(g11
S'\x03\x00\x00\x00\x00\x00\x00\x00'
p2778
tp2779
Rp2780
(i__main__
TreeNode
p2781
(dp2782
g5
(dp2783
sg44
I00
sbsg7
(g11
S'\x04\x00\x00\x00\x00\x00\x00\x00'
p2784
tp2785
Rp2786
(i__main__
TreeNode
p2787
(dp2788
g5
(dp2789
g7
(g11
S'\x01\x00\x00\x00\x00\x00\x00\x00'
p2790
tp2791
Rp2792
(i__main__
TreeNode
p2793
(dp2794
g5
(dp2795
sg44
I00
sbsg7
(g11
S'\x02\x00\x00\x00\x00\x00\x00\x00'
p2796
tp2797
Rp2798
(i__main__
TreeNode
p2799
(dp2800
g5
(dp2801
sg44
I01
sbsg7
(g11
S'\x03\x00\x00\x00\x00\x00\x00\x00'
p2802
tp2803
Rp2804
(i__main__
TreeNode
p2805
(dp2806
g5
(dp2807
sg44
I00
sbsg7
(g11
S'\x04\x00\x00\x00\x00\x00\x00\x00'
p2808
tp2809
Rp2810
(i__main__
TreeNode
p2811
(dp2812
g5
(dp2813
sg44
I00
sbsI-1
(i__main__
TreeNode
p2814
(dp2815
g5
(dp2816
sg44
I00
sbssg44
I86
sbsg7
(g11
S'\x05\x00\x00\x00\x00\x00\x00\x00'
p2817
tp2818
Rp2819
(i__main__
TreeNode
p2820
(dp2821
g5
(dp2822
g7
(g11
S'\x01\x00\x00\x00\x00\x00\x00\x00'
p2823
tp2824
Rp2825
(i__main__
TreeNode
p2826
(dp2827
g5
(dp2828
sg44
I01
sbsg7
(g11
S'\x02\x00\x00\x00\x00\x00\x00\x00'
p2829
tp2830
Rp2831
(i__main__
TreeNode
p2832
(dp2833
g5
(dp2834
sg44
I00
sbsI-1
(i__main__
TreeNode
p2835
(dp2836
g5
(dp2837
sg44
I01
sbssg44
I272
sbsg7
(g11
S'\x06\x00\x00\x00\x00\x00\x00\x00'
p2838
tp2839
Rp2840
(i__main__
TreeNode
p2841
(dp2842
g5
(dp2843
sg44
I00
sbsI-1
(i__main__
TreeNode
p2844
(dp2845
g5
(dp2846
sg44
I00
sbssg44
I87
sbsI-1
(i__main__
TreeNode
p2847
(dp2848
g5
(dp2849
sg44
I00
sbssg44
I84
sbsg7
(g11
S'\x03\x00\x00\x00\x00\x00\x00\x00'
p2850
tp2851
Rp2852
(i__main__
TreeNode
p2853
(dp2854
g5
(dp2855
g7
(g11
S'\x01\x00\x00\x00\x00\x00\x00\x00'
p2856
tp2857
Rp2858
(i__main__
TreeNode
p2859
(dp2860
g5
(dp2861
g7
(g11
S'\x01\x00\x00\x00\x00\x00\x00\x00'
p2862
tp2863
Rp2864
(i__main__
TreeNode
p2865
(dp2866
g5
(dp2867
sg44
I00
sbsg7
(g11
S'\x02\x00\x00\x00\x00\x00\x00\x00'
p2868
tp2869
Rp2870
(i__main__
TreeNode
p2871
(dp2872
g5
(dp2873
g7
(g11
S'\x03\x00\x00\x00\x00\x00\x00\x00'
p2874
tp2875
Rp2876
(i__main__
TreeNode
p2877
(dp2878
g5
(dp2879
sg44
I01
sbsg7
(g11
S'\x04\x00\x00\x00\x00\x00\x00\x00'
p2880
tp2881
Rp2882
(i__main__
TreeNode
p2883
(dp2884
g5
(dp2885
sg44
I00
sbsI-1
(i__main__
TreeNode
p2886
(dp2887
g5
(dp2888
sg44
I00
sbssg44
I82
sbsg7
(g11
S'\x03\x00\x00\x00\x00\x00\x00\x00'
p2889
tp2890
Rp2891
(i__main__
TreeNode
p2892
(dp2893
g5
(dp2894
g7
(g11
S'\x02\x00\x00\x00\x00\x00\x00\x00'
p2895
tp2896
Rp2897
(i__main__
TreeNode
p2898
(dp2899
g5
(dp2900
sg44
I01
sbsg7
(g11
S'\x03\x00\x00\x00\x00\x00\x00\x00'
p2901
tp2902
Rp2903
(i__main__
TreeNode
p2904
(dp2905
g5
(dp2906
sg44
I00
sbsg7
(g11
S'\x04\x00\x00\x00\x00\x00\x00\x00'
p2907
tp2908
Rp2909
(i__main__
TreeNode
p2910
(dp2911
g5
(dp2912
sg44
I00
sbsI-1
(i__main__
TreeNode
p2913
(dp2914
g5
(dp2915
sg44
I00
sbssg44
I88
sbsg7
(g11
S'\x04\x00\x00\x00\x00\x00\x00\x00'
p2916
tp2917
Rp2918
(i__main__
TreeNode
p2919
(dp2920
g5
(dp2921
g7
(g11
S'\x01\x00\x00\x00\x00\x00\x00\x00'
p2922
tp2923
Rp2924
(i__main__
TreeNode
p2925
(dp2926
g5
(dp2927
sg44
I01
sbsg7
(g11
S'\x03\x00\x00\x00\x00\x00\x00\x00'
p2928
tp2929
Rp2930
(i__main__
TreeNode
p2931
(dp2932
g5
(dp2933
sg44
I00
sbsI-1
(i__main__
TreeNode
p2934
(dp2935
g5
(dp2936
sg44
I00
sbssg44
I81
sbsg7
(g11
S'\x05\x00\x00\x00\x00\x00\x00\x00'
p2937
tp2938
Rp2939
(i__main__
TreeNode
p2940
(dp2941
g5
(dp2942
sg44
I00
sbsg7
(g11
S'\x06\x00\x00\x00\x00\x00\x00\x00'
p2943
tp2944
Rp2945
(i__main__
TreeNode
p2946
(dp2947
g5
(dp2948
sg44
I00
sbsg7
(g11
S'\x07\x00\x00\x00\x00\x00\x00\x00'
p2949
tp2950
Rp2951
(i__main__
TreeNode
p2952
(dp2953
g5
(dp2954
sg44
I00
sbsI-1
(i__main__
TreeNode
p2955
(dp2956
g5
(dp2957
sg44
I00
sbssg44
I87
sbsg7
(g11
S'\x02\x00\x00\x00\x00\x00\x00\x00'
p2958
tp2959
Rp2960
(i__main__
TreeNode
p2961
(dp2962
g5
(dp2963
sg44
I00
sbsg7
(g11
S'\x03\x00\x00\x00\x00\x00\x00\x00'
p2964
tp2965
Rp2966
(i__main__
TreeNode
p2967
(dp2968
g5
(dp2969
sg44
I00
sbsg7
(g11
S'\x04\x00\x00\x00\x00\x00\x00\x00'
p2970
tp2971
Rp2972
(i__main__
TreeNode
p2973
(dp2974
g5
(dp2975
sg44
I00
sbsg7
(g11
S'\x05\x00\x00\x00\x00\x00\x00\x00'
p2976
tp2977
Rp2978
(i__main__
TreeNode
p2979
(dp2980
g5
(dp2981
sg44
I00
sbsI-1
(i__main__
TreeNode
p2982
(dp2983
g5
(dp2984
sg44
I00
sbssg44
I84
sbsg7
(g11
S'\x04\x00\x00\x00\x00\x00\x00\x00'
p2985
tp2986
Rp2987
(i__main__
TreeNode
p2988
(dp2989
g5
(dp2990
g7
(g11
S'\x01\x00\x00\x00\x00\x00\x00\x00'
p2991
tp2992
Rp2993
(i__main__
TreeNode
p2994
(dp2995
g5
(dp2996
sg44
I00
sbsg7
(g11
S'\x02\x00\x00\x00\x00\x00\x00\x00'
p2997
tp2998
Rp2999
(i__main__
TreeNode
p3000
(dp3001
g5
(dp3002
sg44
I01
sbsg7
(g11
S'\x04\x00\x00\x00\x00\x00\x00\x00'
p3003
tp3004
Rp3005
(i__main__
TreeNode
p3006
(dp3007
g5
(dp3008
sg44
I00
sbsI-1
(i__main__
TreeNode
p3009
(dp3010
g5
(dp3011
sg44
I00
sbssg44
I84
sbsg7
(g11
S'\x05\x00\x00\x00\x00\x00\x00\x00'
p3012
tp3013
Rp3014
(i__main__
TreeNode
p3015
(dp3016
g5
(dp3017
g7
(g11
S'\x01\x00\x00\x00\x00\x00\x00\x00'
p3018
tp3019
Rp3020
(i__main__
TreeNode
p3021
(dp3022
g5
(dp3023
g7
(g11
S'\x01\x00\x00\x00\x00\x00\x00\x00'
p3024
tp3025
Rp3026
(i__main__
TreeNode
p3027
(dp3028
g5
(dp3029
sg44
I00
sbsg7
(g11
S'\x02\x00\x00\x00\x00\x00\x00\x00'
p3030
tp3031
Rp3032
(i__main__
TreeNode
p3033
(dp3034
g5
(dp3035
g7
(g11
S'\x03\x00\x00\x00\x00\x00\x00\x00'
p3036
tp3037
Rp3038
(i__main__
TreeNode
p3039
(dp3040
g5
(dp3041
sg44
I01
sbsg7
(g11
S'\x04\x00\x00\x00\x00\x00\x00\x00'
p3042
tp3043
Rp3044
(i__main__
TreeNode
p3045
(dp3046
g5
(dp3047
sg44
I00
sbsI-1
(i__main__
TreeNode
p3048
(dp3049
g5
(dp3050
sg44
I00
sbssg44
I81
sbsg7
(g11
S'\x03\x00\x00\x00\x00\x00\x00\x00'
p3051
tp3052
Rp3053
(i__main__
TreeNode
p3054
(dp3055
g5
(dp3056
sg44
I00
sbsg7
(g11
S'\x04\x00\x00\x00\x00\x00\x00\x00'
p3057
tp3058
Rp3059
(i__main__
TreeNode
p3060
(dp3061
g5
(dp3062
sg44
I00
sbsg7
(g11
S'\x05\x00\x00\x00\x00\x00\x00\x00'
p3063
tp3064
Rp3065
(i__main__
TreeNode
p3066
(dp3067
g5
(dp3068
sg44
I00
sbsg7
(g11
S'\x06\x00\x00\x00\x00\x00\x00\x00'
p3069
tp3070
Rp3071
(i__main__
TreeNode
p3072
(dp3073
g5
(dp3074
sg44
I00
sbsg7
(g11
S'\x07\x00\x00\x00\x00\x00\x00\x00'
p3075
tp3076
Rp3077
(i__main__
TreeNode
p3078
(dp3079
g5
(dp3080
sg44
I00
sbsI-1
(i__main__
TreeNode
p3081
(dp3082
g5
(dp3083
sg44
I00
sbssg44
I87
sbsg7
(g11
S'\x02\x00\x00\x00\x00\x00\x00\x00'
p3084
tp3085
Rp3086
(i__main__
TreeNode
p3087
(dp3088
g5
(dp3089
sg44
I00
sbsg7
(g11
S'\x03\x00\x00\x00\x00\x00\x00\x00'
p3090
tp3091
Rp3092
(i__main__
TreeNode
p3093
(dp3094
g5
(dp3095
sg44
I00
sbsg7
(g11
S'\x04\x00\x00\x00\x00\x00\x00\x00'
p3096
tp3097
Rp3098
(i__main__
TreeNode
p3099
(dp3100
g5
(dp3101
sg44
I00
sbsg7
(g11
S'\x05\x00\x00\x00\x00\x00\x00\x00'
p3102
tp3103
Rp3104
(i__main__
TreeNode
p3105
(dp3106
g5
(dp3107
sg44
I00
sbsI-1
(i__main__
TreeNode
p3108
(dp3109
g5
(dp3110
sg44
I00
sbssg44
I84
sbsg7
(g11
S'\x06\x00\x00\x00\x00\x00\x00\x00'
p3111
tp3112
Rp3113
(i__main__
TreeNode
p3114
(dp3115
g5
(dp3116
sg44
I00
sbsg7
(g11
S'\x07\x00\x00\x00\x00\x00\x00\x00'
p3117
tp3118
Rp3119
(i__main__
TreeNode
p3120
(dp3121
g5
(dp3122
g7
(g11
S'\x01\x00\x00\x00\x00\x00\x00\x00'
p3123
tp3124
Rp3125
(i__main__
TreeNode
p3126
(dp3127
g5
(dp3128
sg44
I00
sbsg7
(g11
S'\x02\x00\x00\x00\x00\x00\x00\x00'
p3129
tp3130
Rp3131
(i__main__
TreeNode
p3132
(dp3133
g5
(dp3134
sg44
I00
sbsg7
(g11
S'\x03\x00\x00\x00\x00\x00\x00\x00'
p3135
tp3136
Rp3137
(i__main__
TreeNode
p3138
(dp3139
g5
(dp3140
sg44
I00
sbsg7
(g11
S'\x04\x00\x00\x00\x00\x00\x00\x00'
p3141
tp3142
Rp3143
(i__main__
TreeNode
p3144
(dp3145
g5
(dp3146
sg44
I00
sbsg7
(g11
S'\x05\x00\x00\x00\x00\x00\x00\x00'
p3147
tp3148
Rp3149
(i__main__
TreeNode
p3150
(dp3151
g5
(dp3152
sg44
I01
sbsI-1
(i__main__
TreeNode
p3153
(dp3154
g5
(dp3155
sg44
I00
sbssg44
I84
sbsg7
(g11
S'\x08\x00\x00\x00\x00\x00\x00\x00'
p3156
tp3157
Rp3158
(i__main__
TreeNode
p3159
(dp3160
g5
(dp3161
g7
(g11
S'\x01\x00\x00\x00\x00\x00\x00\x00'
p3162
tp3163
Rp3164
(i__main__
TreeNode
p3165
(dp3166
g5
(dp3167
g7
(g11
S'\x01\x00\x00\x00\x00\x00\x00\x00'
p3168
tp3169
Rp3170
(i__main__
TreeNode
p3171
(dp3172
g5
(dp3173
sg44
I00
sbsg7
(g11
S'\x02\x00\x00\x00\x00\x00\x00\x00'
p3174
tp3175
Rp3176
(i__main__
TreeNode
p3177
(dp3178
g5
(dp3179
sg44
I00
sbsg7
(g11
S'\x05\x00\x00\x00\x00\x00\x00\x00'
p3180
tp3181
Rp3182
(i__main__
TreeNode
p3183
(dp3184
g5
(dp3185
sg44
I00
sbsI-1
(i__main__
TreeNode
p3186
(dp3187
g5
(dp3188
sg44
I00
sbssg44
I272
sbsg7
(g11
S'\x02\x00\x00\x00\x00\x00\x00\x00'
p3189
tp3190
Rp3191
(i__main__
TreeNode
p3192
(dp3193
g5
(dp3194
sg44
I00
sbsg7
(g11
S'\x03\x00\x00\x00\x00\x00\x00\x00'
p3195
tp3196
Rp3197
(i__main__
TreeNode
p3198
(dp3199
g5
(dp3200
sg44
I00
sbsg7
(g11
S'\x04\x00\x00\x00\x00\x00\x00\x00'
p3201
tp3202
Rp3203
(i__main__
TreeNode
p3204
(dp3205
g5
(dp3206
sg44
I01
sbsI-1
(i__main__
TreeNode
p3207
(dp3208
g5
(dp3209
sg44
I00
sbssg44
I84
sbsg7
(g11
S'\t\x00\x00\x00\x00\x00\x00\x00'
p3210
tp3211
Rp3212
(i__main__
TreeNode
p3213
(dp3214
g5
(dp3215
g7
(g11
S'\x01\x00\x00\x00\x00\x00\x00\x00'
p3216
tp3217
Rp3218
(i__main__
TreeNode
p3219
(dp3220
g5
(dp3221
sg44
I00
sbsg7
(g11
S'\x02\x00\x00\x00\x00\x00\x00\x00'
p3222
tp3223
Rp3224
(i__main__
TreeNode
p3225
(dp3226
g5
(dp3227
sg44
I00
sbsg7
(g11
S'\x03\x00\x00\x00\x00\x00\x00\x00'
p3228
tp3229
Rp3230
(i__main__
TreeNode
p3231
(dp3232
g5
(dp3233
sg44
I00
sbsg7
(g11
S'\x04\x00\x00\x00\x00\x00\x00\x00'
p3234
tp3235
Rp3236
(i__main__
TreeNode
p3237
(dp3238
g5
(dp3239
sg44
I01
sbsg7
(g11
S'\x05\x00\x00\x00\x00\x00\x00\x00'
p3240
tp3241
Rp3242
(i__main__
TreeNode
p3243
(dp3244
g5
(dp3245
sg44
I01
sbsI-1
(i__main__
TreeNode
p3246
(dp3247
g5
(dp3248
sg44
I00
sbssg44
I84
sbsg7
(g11
S'\n\x00\x00\x00\x00\x00\x00\x00'
p3249
tp3250
Rp3251
(i__main__
TreeNode
p3252
(dp3253
g5
(dp3254
g7
(g11
S'\x01\x00\x00\x00\x00\x00\x00\x00'
p3255
tp3256
Rp3257
(i__main__
TreeNode
p3258
(dp3259
g5
(dp3260
g7
(g11
S'\x02\x00\x00\x00\x00\x00\x00\x00'
p3261
tp3262
Rp3263
(i__main__
TreeNode
p3264
(dp3265
g5
(dp3266
sg44
I00
sbsg7
(g11
S'\x03\x00\x00\x00\x00\x00\x00\x00'
p3267
tp3268
Rp3269
(i__main__
TreeNode
p3270
(dp3271
g5
(dp3272
sg44
I00
sbsg7
(g11
S'\x05\x00\x00\x00\x00\x00\x00\x00'
p3273
tp3274
Rp3275
(i__main__
TreeNode
p3276
(dp3277
g5
(dp3278
sg44
I00
sbsI-1
(i__main__
TreeNode
p3279
(dp3280
g5
(dp3281
sg44
I00
sbssg44
I81
sbsg7
(g11
S'\x02\x00\x00\x00\x00\x00\x00\x00'
p3282
tp3283
Rp3284
(i__main__
TreeNode
p3285
(dp3286
g5
(dp3287
sg44
I00
sbsg7
(g11
S'\x03\x00\x00\x00\x00\x00\x00\x00'
p3288
tp3289
Rp3290
(i__main__
TreeNode
p3291
(dp3292
g5
(dp3293
sg44
I00
sbsg7
(g11
S'\x04\x00\x00\x00\x00\x00\x00\x00'
p3294
tp3295
Rp3296
(i__main__
TreeNode
p3297
(dp3298
g5
(dp3299
sg44
I00
sbsg7
(g11
S'\x05\x00\x00\x00\x00\x00\x00\x00'
p3300
tp3301
Rp3302
(i__main__
TreeNode
p3303
(dp3304
g5
(dp3305
sg44
I00
sbsg7
(g11
S'\x06\x00\x00\x00\x00\x00\x00\x00'
p3306
tp3307
Rp3308
(i__main__
TreeNode
p3309
(dp3310
g5
(dp3311
sg44
I00
sbsg7
(g11
S'\x07\x00\x00\x00\x00\x00\x00\x00'
p3312
tp3313
Rp3314
(i__main__
TreeNode
p3315
(dp3316
g5
(dp3317
g7
(g11
S'\x01\x00\x00\x00\x00\x00\x00\x00'
p3318
tp3319
Rp3320
(i__main__
TreeNode
p3321
(dp3322
g5
(dp3323
sg44
I00
sbsg7
(g11
S'\x02\x00\x00\x00\x00\x00\x00\x00'
p3324
tp3325
Rp3326
(i__main__
TreeNode
p3327
(dp3328
g5
(dp3329
sg44
I00
sbsg7
(g11
S'\x03\x00\x00\x00\x00\x00\x00\x00'
p3330
tp3331
Rp3332
(i__main__
TreeNode
p3333
(dp3334
g5
(dp3335
sg44
I00
sbsg7
(g11
S'\x05\x00\x00\x00\x00\x00\x00\x00'
p3336
tp3337
Rp3338
(i__main__
TreeNode
p3339
(dp3340
g5
(dp3341
sg44
I01
sbsI-1
(i__main__
TreeNode
p3342
(dp3343
g5
(dp3344
sg44
I00
sbssg44
I85
sbsI-1
(i__main__
TreeNode
p3345
(dp3346
g5
(dp3347
sg44
I00
sbssg44
I273
sbsg7
(g11
S'\x0b\x00\x00\x00\x00\x00\x00\x00'
p3348
tp3349
Rp3350
(i__main__
TreeNode
p3351
(dp3352
g5
(dp3353
g7
(g11
S'\x01\x00\x00\x00\x00\x00\x00\x00'
p3354
tp3355
Rp3356
(i__main__
TreeNode
p3357
(dp3358
g5
(dp3359
sg44
I01
sbsg7
(g11
S'\x02\x00\x00\x00\x00\x00\x00\x00'
p3360
tp3361
Rp3362
(i__main__
TreeNode
p3363
(dp3364
g5
(dp3365
g7
(g11
S'\x04\x00\x00\x00\x00\x00\x00\x00'
p3366
tp3367
Rp3368
(i__main__
TreeNode
p3369
(dp3370
g5
(dp3371
sg44
I00
sbsg7
(g11
S'\x06\x00\x00\x00\x00\x00\x00\x00'
p3372
tp3373
Rp3374
(i__main__
TreeNode
p3375
(dp3376
g5
(dp3377
sg44
I00
sbsI-1
(i__main__
TreeNode
p3378
(dp3379
g5
(dp3380
sg44
I00
sbssg44
I87
sbsg7
(g11
S'\x03\x00\x00\x00\x00\x00\x00\x00'
p3381
tp3382
Rp3383
(i__main__
TreeNode
p3384
(dp3385
g5
(dp3386
sg44
I00
sbsg7
(g11
S'\x04\x00\x00\x00\x00\x00\x00\x00'
p3387
tp3388
Rp3389
(i__main__
TreeNode
p3390
(dp3391
g5
(dp3392
sg44
I00
sbsg7
(g11
S'\x05\x00\x00\x00\x00\x00\x00\x00'
p3393
tp3394
Rp3395
(i__main__
TreeNode
p3396
(dp3397
g5
(dp3398
sg44
I00
sbsI-1
(i__main__
TreeNode
p3399
(dp3400
g5
(dp3401
sg44
I00
sbssg44
I81
sbsg7
(g11
S'\x0c\x00\x00\x00\x00\x00\x00\x00'
p3402
tp3403
Rp3404
(i__main__
TreeNode
p3405
(dp3406
g5
(dp3407
g7
(g11
S'\x01\x00\x00\x00\x00\x00\x00\x00'
p3408
tp3409
Rp3410
(i__main__
TreeNode
p3411
(dp3412
g5
(dp3413
sg44
I00
sbsg7
(g11
S'\x02\x00\x00\x00\x00\x00\x00\x00'
p3414
tp3415
Rp3416
(i__main__
TreeNode
p3417
(dp3418
g5
(dp3419
sg44
I00
sbsg7
(g11
S'\x04\x00\x00\x00\x00\x00\x00\x00'
p3420
tp3421
Rp3422
(i__main__
TreeNode
p3423
(dp3424
g5
(dp3425
sg44
I00
sbsI-1
(i__main__
TreeNode
p3426
(dp3427
g5
(dp3428
sg44
I00
sbssg44
I84
sbsg7
(g11
S'\r\x00\x00\x00\x00\x00\x00\x00'
p3429
tp3430
Rp3431
(i__main__
TreeNode
p3432
(dp3433
g5
(dp3434
g7
(g11
S'\x01\x00\x00\x00\x00\x00\x00\x00'
p3435
tp3436
Rp3437
(i__main__
TreeNode
p3438
(dp3439
g5
(dp3440
g7
(g11
S'\x01\x00\x00\x00\x00\x00\x00\x00'
p3441
tp3442
Rp3443
(i__main__
TreeNode
p3444
(dp3445
g5
(dp3446
sg44
I00
sbsg7
(g11
S'\x02\x00\x00\x00\x00\x00\x00\x00'
p3447
tp3448
Rp3449
(i__main__
TreeNode
p3450
(dp3451
g5
(dp3452
sg44
I01
sbsg7
(g11
S'\x03\x00\x00\x00\x00\x00\x00\x00'
p3453
tp3454
Rp3455
(i__main__
TreeNode
p3456
(dp3457
g5
(dp3458
sg44
I00
sbsg7
(g11
S'\x04\x00\x00\x00\x00\x00\x00\x00'
p3459
tp3460
Rp3461
(i__main__
TreeNode
p3462
(dp3463
g5
(dp3464
sg44
I00
sbsg7
(g11
S'\x05\x00\x00\x00\x00\x00\x00\x00'
p3465
tp3466
Rp3467
(i__main__
TreeNode
p3468
(dp3469
g5
(dp3470
sg44
I00
sbsI-1
(i__main__
TreeNode
p3471
(dp3472
g5
(dp3473
sg44
I00
sbssg44
I128
sbsg7
(g11
S'\x02\x00\x00\x00\x00\x00\x00\x00'
p3474
tp3475
Rp3476
(i__main__
TreeNode
p3477
(dp3478
g5
(dp3479
g7
(g11
S'\x01\x00\x00\x00\x00\x00\x00\x00'
p3480
tp3481
Rp3482
(i__main__
TreeNode
p3483
(dp3484
g5
(dp3485
sg44
I00
sbsg7
(g11
S'\x02\x00\x00\x00\x00\x00\x00\x00'
p3486
tp3487
Rp3488
(i__main__
TreeNode
p3489
(dp3490
g5
(dp3491
sg44
I00
sbsg7
(g11
S'\x03\x00\x00\x00\x00\x00\x00\x00'
p3492
tp3493
Rp3494
(i__main__
TreeNode
p3495
(dp3496
g5
(dp3497
sg44
I01
sbsg7
(g11
S'\x04\x00\x00\x00\x00\x00\x00\x00'
p3498
tp3499
Rp3500
(i__main__
TreeNode
p3501
(dp3502
g5
(dp3503
sg44
I00
sbsg7
(g11
S'\x05\x00\x00\x00\x00\x00\x00\x00'
p3504
tp3505
Rp3506
(i__main__
TreeNode
p3507
(dp3508
g5
(dp3509
sg44
I01
sbsI-1
(i__main__
TreeNode
p3510
(dp3511
g5
(dp3512
sg44
I00
sbssg44
I81
sbsg7
(g11
S'\x03\x00\x00\x00\x00\x00\x00\x00'
p3513
tp3514
Rp3515
(i__main__
TreeNode
p3516
(dp3517
g5
(dp3518
g7
(g11
S'\x02\x00\x00\x00\x00\x00\x00\x00'
p3519
tp3520
Rp3521
(i__main__
TreeNode
p3522
(dp3523
g5
(dp3524
sg44
I01
sbsg7
(g11
S'\x03\x00\x00\x00\x00\x00\x00\x00'
p3525
tp3526
Rp3527
(i__main__
TreeNode
p3528
(dp3529
g5
(dp3530
sg44
I00
sbsg7
(g11
S'\x04\x00\x00\x00\x00\x00\x00\x00'
p3531
tp3532
Rp3533
(i__main__
TreeNode
p3534
(dp3535
g5
(dp3536
sg44
I01
sbsg7
(g11
S'\x06\x00\x00\x00\x00\x00\x00\x00'
p3537
tp3538
Rp3539
(i__main__
TreeNode
p3540
(dp3541
g5
(dp3542
sg44
I00
sbsg7
(g11
S'\x07\x00\x00\x00\x00\x00\x00\x00'
p3543
tp3544
Rp3545
(i__main__
TreeNode
p3546
(dp3547
g5
(dp3548
sg44
I01
sbsI-1
(i__main__
TreeNode
p3549
(dp3550
g5
(dp3551
sg44
I00
sbssg44
I87
sbsg7
(g11
S'\x04\x00\x00\x00\x00\x00\x00\x00'
p3552
tp3553
Rp3554
(i__main__
TreeNode
p3555
(dp3556
g5
(dp3557
g7
(g11
S'\x03\x00\x00\x00\x00\x00\x00\x00'
p3558
tp3559
Rp3560
(i__main__
TreeNode
p3561
(dp3562
g5
(dp3563
sg44
I00
sbsg7
(g11
S'\x02\x00\x00\x00\x00\x00\x00\x00'
p3564
tp3565
Rp3566
(i__main__
TreeNode
p3567
(dp3568
g5
(dp3569
sg44
I01
sbsg7
(g11
S'\x06\x00\x00\x00\x00\x00\x00\x00'
p3570
tp3571
Rp3572
(i__main__
TreeNode
p3573
(dp3574
g5
(dp3575
sg44
I00
sbsg7
(g11
S'\x05\x00\x00\x00\x00\x00\x00\x00'
p3576
tp3577
Rp3578
(i__main__
TreeNode
p3579
(dp3580
g5
(dp3581
sg44
I00
sbsI-1
(i__main__
TreeNode
p3582
(dp3583
g5
(dp3584
sg44
I00
sbssg44
I87
sbsg7
(g11
S'\x05\x00\x00\x00\x00\x00\x00\x00'
p3585
tp3586
Rp3587
(i__main__
TreeNode
p3588
(dp3589
g5
(dp3590
sg44
I00
sbsg7
(g11
S'\x06\x00\x00\x00\x00\x00\x00\x00'
p3591
tp3592
Rp3593
(i__main__
TreeNode
p3594
(dp3595
g5
(dp3596
sg44
I00
sbsg7
(g11
S'\x07\x00\x00\x00\x00\x00\x00\x00'
p3597
tp3598
Rp3599
(i__main__
TreeNode
p3600
(dp3601
g5
(dp3602
sg44
I00
sbsI-1
(i__main__
TreeNode
p3603
(dp3604
g5
(dp3605
sg44
I00
sbssg44
I273
sbsg7
(g11
S'\x0e\x00\x00\x00\x00\x00\x00\x00'
p3606
tp3607
Rp3608
(i__main__
TreeNode
p3609
(dp3610
g5
(dp3611
sg44
I00
sbsg7
(g11
S'\x0f\x00\x00\x00\x00\x00\x00\x00'
p3612
tp3613
Rp3614
(i__main__
TreeNode
p3615
(dp3616
g5
(dp3617
sg44
I00
sbsg7
(g11
S'\x10\x00\x00\x00\x00\x00\x00\x00'
p3618
tp3619
Rp3620
(i__main__
TreeNode
p3621
(dp3622
g5
(dp3623
g7
(g11
S'\x01\x00\x00\x00\x00\x00\x00\x00'
p3624
tp3625
Rp3626
(i__main__
TreeNode
p3627
(dp3628
g5
(dp3629
sg44
I01
sbsg7
(g11
S'\x02\x00\x00\x00\x00\x00\x00\x00'
p3630
tp3631
Rp3632
(i__main__
TreeNode
p3633
(dp3634
g5
(dp3635
sg44
I00
sbsg7
(g11
S'\x03\x00\x00\x00\x00\x00\x00\x00'
p3636
tp3637
Rp3638
(i__main__
TreeNode
p3639
(dp3640
g5
(dp3641
sg44
I00
sbsg7
(g11
S'\x04\x00\x00\x00\x00\x00\x00\x00'
p3642
tp3643
Rp3644
(i__main__
TreeNode
p3645
(dp3646
g5
(dp3647
sg44
I00
sbsg7
(g11
S'\x05\x00\x00\x00\x00\x00\x00\x00'
p3648
tp3649
Rp3650
(i__main__
TreeNode
p3651
(dp3652
g5
(dp3653
sg44
I00
sbsI-1
(i__main__
TreeNode
p3654
(dp3655
g5
(dp3656
sg44
I00
sbssg44
I81
sbsg7
(g11
S'\x11\x00\x00\x00\x00\x00\x00\x00'
p3657
tp3658
Rp3659
(i__main__
TreeNode
p3660
(dp3661
g5
(dp3662
sg44
I00
sbsg7
(g11
S'\x12\x00\x00\x00\x00\x00\x00\x00'
p3663
tp3664
Rp3665
(i__main__
TreeNode
p3666
(dp3667
g5
(dp3668
g7
(g11
S'\x01\x00\x00\x00\x00\x00\x00\x00'
p3669
tp3670
Rp3671
(i__main__
TreeNode
p3672
(dp3673
g5
(dp3674
g7
(g11
S'\x01\x00\x00\x00\x00\x00\x00\x00'
p3675
tp3676
Rp3677
(i__main__
TreeNode
p3678
(dp3679
g5
(dp3680
sg44
I00
sbsg7
(g11
S'\x02\x00\x00\x00\x00\x00\x00\x00'
p3681
tp3682
Rp3683
(i__main__
TreeNode
p3684
(dp3685
g5
(dp3686
sg44
I00
sbsg7
(g11
S'\x03\x00\x00\x00\x00\x00\x00\x00'
p3687
tp3688
Rp3689
(i__main__
TreeNode
p3690
(dp3691
g5
(dp3692
sg44
I00
sbsg7
(g11
S'\x04\x00\x00\x00\x00\x00\x00\x00'
p3693
tp3694
Rp3695
(i__main__
TreeNode
p3696
(dp3697
g5
(dp3698
sg44
I00
sbsg7
(g11
S'\x05\x00\x00\x00\x00\x00\x00\x00'
p3699
tp3700
Rp3701
(i__main__
TreeNode
p3702
(dp3703
g5
(dp3704
sg44
I00
sbsg7
(g11
S'\x06\x00\x00\x00\x00\x00\x00\x00'
p3705
tp3706
Rp3707
(i__main__
TreeNode
p3708
(dp3709
g5
(dp3710
sg44
I00
sbsg7
(g11
S'\x07\x00\x00\x00\x00\x00\x00\x00'
p3711
tp3712
Rp3713
(i__main__
TreeNode
p3714
(dp3715
g5
(dp3716
sg44
I00
sbsI-1
(i__main__
TreeNode
p3717
(dp3718
g5
(dp3719
sg44
I00
sbssg44
I87
sbsg7
(g11
S'\x02\x00\x00\x00\x00\x00\x00\x00'
p3720
tp3721
Rp3722
(i__main__
TreeNode
p3723
(dp3724
g5
(dp3725
sg44
I00
sbsg7
(g11
S'\x03\x00\x00\x00\x00\x00\x00\x00'
p3726
tp3727
Rp3728
(i__main__
TreeNode
p3729
(dp3730
g5
(dp3731
sg44
I00
sbsg7
(g11
S'\x04\x00\x00\x00\x00\x00\x00\x00'
p3732
tp3733
Rp3734
(i__main__
TreeNode
p3735
(dp3736
g5
(dp3737
sg44
I00
sbsg7
(g11
S'\x05\x00\x00\x00\x00\x00\x00\x00'
p3738
tp3739
Rp3740
(i__main__
TreeNode
p3741
(dp3742
g5
(dp3743
sg44
I00
sbsI-1
(i__main__
TreeNode
p3744
(dp3745
g5
(dp3746
sg44
I00
sbssg44
I84
sbsg7
(g11
S'\x13\x00\x00\x00\x00\x00\x00\x00'
p3747
tp3748
Rp3749
(i__main__
TreeNode
p3750
(dp3751
g5
(dp3752
sg44
I00
sbsg7
(g11
S'\x14\x00\x00\x00\x00\x00\x00\x00'
p3753
tp3754
Rp3755
(i__main__
TreeNode
p3756
(dp3757
g5
(dp3758
g7
(g11
S'\x01\x00\x00\x00\x00\x00\x00\x00'
p3759
tp3760
Rp3761
(i__main__
TreeNode
p3762
(dp3763
g5
(dp3764
sg44
I01
sbsg7
(g11
S'\x02\x00\x00\x00\x00\x00\x00\x00'
p3765
tp3766
Rp3767
(i__main__
TreeNode
p3768
(dp3769
g5
(dp3770
sg44
I00
sbsg7
(g11
S'\x03\x00\x00\x00\x00\x00\x00\x00'
p3771
tp3772
Rp3773
(i__main__
TreeNode
p3774
(dp3775
g5
(dp3776
sg44
I00
sbsg7
(g11
S'\x05\x00\x00\x00\x00\x00\x00\x00'
p3777
tp3778
Rp3779
(i__main__
TreeNode
p3780
(dp3781
g5
(dp3782
sg44
I00
sbsg7
(g11
S'\x07\x00\x00\x00\x00\x00\x00\x00'
p3783
tp3784
Rp3785
(i__main__
TreeNode
p3786
(dp3787
g5
(dp3788
sg44
I00
sbsI-1
(i__main__
TreeNode
p3789
(dp3790
g5
(dp3791
sg44
I00
sbssg44
I273
sbsg7
(g11
S'\x15\x00\x00\x00\x00\x00\x00\x00'
p3792
tp3793
Rp3794
(i__main__
TreeNode
p3795
(dp3796
g5
(dp3797
sg44
I00
sbsI-1
(i__main__
TreeNode
p3798
(dp3799
g5
(dp3800
sg44
I00
sbssg44
I263
sbsg7
(g11
S'\x02\x00\x00\x00\x00\x00\x00\x00'
p3801
tp3802
Rp3803
(i__main__
TreeNode
p3804
(dp3805
g5
(dp3806
g7
(g11
S'\x01\x00\x00\x00\x00\x00\x00\x00'
p3807
tp3808
Rp3809
(i__main__
TreeNode
p3810
(dp3811
g5
(dp3812
g7
(g11
S'\x01\x00\x00\x00\x00\x00\x00\x00'
p3813
tp3814
Rp3815
(i__main__
TreeNode
p3816
(dp3817
g5
(dp3818
g7
(g11
S'\x01\x00\x00\x00\x00\x00\x00\x00'
p3819
tp3820
Rp3821
(i__main__
TreeNode
p3822
(dp3823
g5
(dp3824
sg44
I00
sbsg7
(g11
S'\x02\x00\x00\x00\x00\x00\x00\x00'
p3825
tp3826
Rp3827
(i__main__
TreeNode
p3828
(dp3829
g5
(dp3830
sg44
I00
sbsg7
(g11
S'\x03\x00\x00\x00\x00\x00\x00\x00'
p3831
tp3832
Rp3833
(i__main__
TreeNode
p3834
(dp3835
g5
(dp3836
sg44
I00
sbsg7
(g11
S'\x04\x00\x00\x00\x00\x00\x00\x00'
p3837
tp3838
Rp3839
(i__main__
TreeNode
p3840
(dp3841
g5
(dp3842
sg44
I00
sbsg7
(g11
S'\x05\x00\x00\x00\x00\x00\x00\x00'
p3843
tp3844
Rp3845
(i__main__
TreeNode
p3846
(dp3847
g5
(dp3848
sg44
I01
sbsI-1
(i__main__
TreeNode
p3849
(dp3850
g5
(dp3851
sg44
I00
sbssg44
I84
sbsg7
(g11
S'\x02\x00\x00\x00\x00\x00\x00\x00'
p3852
tp3853
Rp3854
(i__main__
TreeNode
p3855
(dp3856
g5
(dp3857
g7
(g11
S'\x01\x00\x00\x00\x00\x00\x00\x00'
p3858
tp3859
Rp3860
(i__main__
TreeNode
p3861
(dp3862
g5
(dp3863
g7
(g11
S'\x02\x00\x00\x00\x00\x00\x00\x00'
p3864
tp3865
Rp3866
(i__main__
TreeNode
p3867
(dp3868
g5
(dp3869
sg44
I00
sbsg7
(g11
S'\x03\x00\x00\x00\x00\x00\x00\x00'
p3870
tp3871
Rp3872
(i__main__
TreeNode
p3873
(dp3874
g5
(dp3875
sg44
I01
sbsg7
(g11
S'\x04\x00\x00\x00\x00\x00\x00\x00'
p3876
tp3877
Rp3878
(i__main__
TreeNode
p3879
(dp3880
g5
(dp3881
sg44
I00
sbsg7
(g11
S'\x05\x00\x00\x00\x00\x00\x00\x00'
p3882
tp3883
Rp3884
(i__main__
TreeNode
p3885
(dp3886
g5
(dp3887
sg44
I00
sbsI-1
(i__main__
TreeNode
p3888
(dp3889
g5
(dp3890
sg44
I00
sbssg44
I129
sbsg7
(g11
S'\x02\x00\x00\x00\x00\x00\x00\x00'
p3891
tp3892
Rp3893
(i__main__
TreeNode
p3894
(dp3895
g5
(dp3896
sg44
I00
sbsg7
(g11
S'\x03\x00\x00\x00\x00\x00\x00\x00'
p3897
tp3898
Rp3899
(i__main__
TreeNode
p3900
(dp3901
g5
(dp3902
sg44
I00
sbsg7
(g11
S'\x04\x00\x00\x00\x00\x00\x00\x00'
p3903
tp3904
Rp3905
(i__main__
TreeNode
p3906
(dp3907
g5
(dp3908
sg44
I00
sbsg7
(g11
S'\x05\x00\x00\x00\x00\x00\x00\x00'
p3909
tp3910
Rp3911
(i__main__
TreeNode
p3912
(dp3913
g5
(dp3914
sg44
I00
sbsg7
(g11
S'\x06\x00\x00\x00\x00\x00\x00\x00'
p3915
tp3916
Rp3917
(i__main__
TreeNode
p3918
(dp3919
g5
(dp3920
sg44
I00
sbsg7
(g11
S'\x07\x00\x00\x00\x00\x00\x00\x00'
p3921
tp3922
Rp3923
(i__main__
TreeNode
p3924
(dp3925
g5
(dp3926
g7
(g11
S'\x01\x00\x00\x00\x00\x00\x00\x00'
p3927
tp3928
Rp3929
(i__main__
TreeNode
p3930
(dp3931
g5
(dp3932
sg44
I00
sbsg7
(g11
S'\x02\x00\x00\x00\x00\x00\x00\x00'
p3933
tp3934
Rp3935
(i__main__
TreeNode
p3936
(dp3937
g5
(dp3938
sg44
I00
sbsg7
(g11
S'\x03\x00\x00\x00\x00\x00\x00\x00'
p3939
tp3940
Rp3941
(i__main__
TreeNode
p3942
(dp3943
g5
(dp3944
sg44
I00
sbsI-1
(i__main__
TreeNode
p3945
(dp3946
g5
(dp3947
sg44
I00
sbssg44
I81
sbsI-1
(i__main__
TreeNode
p3948
(dp3949
g5
(dp3950
sg44
I00
sbssg44
I87
sbsg7
(g11
S'\x03\x00\x00\x00\x00\x00\x00\x00'
p3951
tp3952
Rp3953
(i__main__
TreeNode
p3954
(dp3955
g5
(dp3956
g7
(g11
S'\x01\x00\x00\x00\x00\x00\x00\x00'
p3957
tp3958
Rp3959
(i__main__
TreeNode
p3960
(dp3961
g5
(dp3962
sg44
I00
sbsg7
(g11
S'\x02\x00\x00\x00\x00\x00\x00\x00'
p3963
tp3964
Rp3965
(i__main__
TreeNode
p3966
(dp3967
g5
(dp3968
sg44
I00
sbsg7
(g11
S'\x03\x00\x00\x00\x00\x00\x00\x00'
p3969
tp3970
Rp3971
(i__main__
TreeNode
p3972
(dp3973
g5
(dp3974
g7
(g11
S'\x01\x00\x00\x00\x00\x00\x00\x00'
p3975
tp3976
Rp3977
(i__main__
TreeNode
p3978
(dp3979
g5
(dp3980
sg44
I00
sbsg7
(g11
S'\x02\x00\x00\x00\x00\x00\x00\x00'
p3981
tp3982
Rp3983
(i__main__
TreeNode
p3984
(dp3985
g5
(dp3986
sg44
I01
sbsI-1
(i__main__
TreeNode
p3987
(dp3988
g5
(dp3989
sg44
I00
sbssg44
I86
sbsg7
(g11
S'\x04\x00\x00\x00\x00\x00\x00\x00'
p3990
tp3991
Rp3992
(i__main__
TreeNode
p3993
(dp3994
g5
(dp3995
sg44
I00
sbsg7
(g11
S'\x05\x00\x00\x00\x00\x00\x00\x00'
p3996
tp3997
Rp3998
(i__main__
TreeNode
p3999
(dp4000
g5
(dp4001
sg44
I00
sbsI-1
(i__main__
TreeNode
p4002
(dp4003
g5
(dp4004
sg44
I00
sbssg44
I129
sbsg7
(g11
S'\x04\x00\x00\x00\x00\x00\x00\x00'
p4005
tp4006
Rp4007
(i__main__
TreeNode
p4008
(dp4009
g5
(dp4010
sg44
I00
sbsg7
(g11
S'\x05\x00\x00\x00\x00\x00\x00\x00'
p4011
tp4012
Rp4013
(i__main__
TreeNode
p4014
(dp4015
g5
(dp4016
sg44
I00
sbsI-1
(i__main__
TreeNode
p4017
(dp4018
g5
(dp4019
sg44
I00
sbssg44
I82
sbsg7
(g11
S'\x02\x00\x00\x00\x00\x00\x00\x00'
p4020
tp4021
Rp4022
(i__main__
TreeNode
p4023
(dp4024
g5
(dp4025
g7
(g11
S'\x01\x00\x00\x00\x00\x00\x00\x00'
p4026
tp4027
Rp4028
(i__main__
TreeNode
p4029
(dp4030
g5
(dp4031
g7
(g11
S'\x01\x00\x00\x00\x00\x00\x00\x00'
p4032
tp4033
Rp4034
(i__main__
TreeNode
p4035
(dp4036
g5
(dp4037
sg44
I01
sbsg7
(g11
S'\x02\x00\x00\x00\x00\x00\x00\x00'
p4038
tp4039
Rp4040
(i__main__
TreeNode
p4041
(dp4042
g5
(dp4043
sg44
I01
sbsg7
(g11
S'\x03\x00\x00\x00\x00\x00\x00\x00'
p4044
tp4045
Rp4046
(i__main__
TreeNode
p4047
(dp4048
g5
(dp4049
sg44
I01
sbsg7
(g11
S'\x04\x00\x00\x00\x00\x00\x00\x00'
p4050
tp4051
Rp4052
(i__main__
TreeNode
p4053
(dp4054
g5
(dp4055
g7
(g11
S'\x01\x00\x00\x00\x00\x00\x00\x00'
p4056
tp4057
Rp4058
(i__main__
TreeNode
p4059
(dp4060
g5
(dp4061
sg44
I01
sbsg7
(g11
S'\x02\x00\x00\x00\x00\x00\x00\x00'
p4062
tp4063
Rp4064
(i__main__
TreeNode
p4065
(dp4066
g5
(dp4067
sg44
I00
sbsI-1
(i__main__
TreeNode
p4068
(dp4069
g5
(dp4070
sg44
I00
sbssg44
I81
sbsg7
(g11
S'\x05\x00\x00\x00\x00\x00\x00\x00'
p4071
tp4072
Rp4073
(i__main__
TreeNode
p4074
(dp4075
g5
(dp4076
sg44
I00
sbsg7
(g11
S'\x06\x00\x00\x00\x00\x00\x00\x00'
p4077
tp4078
Rp4079
(i__main__
TreeNode
p4080
(dp4081
g5
(dp4082
sg44
I01
sbsg7
(g11
S'\x07\x00\x00\x00\x00\x00\x00\x00'
p4083
tp4084
Rp4085
(i__main__
TreeNode
p4086
(dp4087
g5
(dp4088
g7
(g11
S'\x01\x00\x00\x00\x00\x00\x00\x00'
p4089
tp4090
Rp4091
(i__main__
TreeNode
p4092
(dp4093
g5
(dp4094
sg44
I00
sbsg7
(g11
S'\x02\x00\x00\x00\x00\x00\x00\x00'
p4095
tp4096
Rp4097
(i__main__
TreeNode
p4098
(dp4099
g5
(dp4100
sg44
I01
sbsI-1
(i__main__
TreeNode
p4101
(dp4102
g5
(dp4103
sg44
I00
sbssg44
I174
sbsI-1
(i__main__
TreeNode
p4104
(dp4105
g5
(dp4106
sg44
I01
sbssg44
I87
sbsg7
(g11
S'\x02\x00\x00\x00\x00\x00\x00\x00'
p4107
tp4108
Rp4109
(i__main__
TreeNode
p4110
(dp4111
g5
(dp4112
g7
(g11
S'\x01\x00\x00\x00\x00\x00\x00\x00'
p4113
tp4114
Rp4115
(i__main__
TreeNode
p4116
(dp4117
g5
(dp4118
sg44
I00
sbsg7
(g11
S'\x03\x00\x00\x00\x00\x00\x00\x00'
p4119
tp4120
Rp4121
(i__main__
TreeNode
p4122
(dp4123
g5
(dp4124
sg44
I01
sbsI-1
(i__main__
TreeNode
p4125
(dp4126
g5
(dp4127
sg44
I00
sbssg44
I173
sbsg7
(g11
S'\x03\x00\x00\x00\x00\x00\x00\x00'
p4128
tp4129
Rp4130
(i__main__
TreeNode
p4131
(dp4132
g5
(dp4133
g7
(g11
S'\x01\x00\x00\x00\x00\x00\x00\x00'
p4134
tp4135
Rp4136
(i__main__
TreeNode
p4137
(dp4138
g5
(dp4139
sg44
I00
sbsg7
(g11
S'\x02\x00\x00\x00\x00\x00\x00\x00'
p4140
tp4141
Rp4142
(i__main__
TreeNode
p4143
(dp4144
g5
(dp4145
sg44
I00
sbsg7
(g11
S'\x03\x00\x00\x00\x00\x00\x00\x00'
p4146
tp4147
Rp4148
(i__main__
TreeNode
p4149
(dp4150
g5
(dp4151
sg44
I01
sbsg7
(g11
S'\x04\x00\x00\x00\x00\x00\x00\x00'
p4152
tp4153
Rp4154
(i__main__
TreeNode
p4155
(dp4156
g5
(dp4157
sg44
I00
sbsg7
(g11
S'\x05\x00\x00\x00\x00\x00\x00\x00'
p4158
tp4159
Rp4160
(i__main__
TreeNode
p4161
(dp4162
g5
(dp4163
sg44
I00
sbsI-1
(i__main__
TreeNode
p4164
(dp4165
g5
(dp4166
sg44
I00
sbssg44
I81
sbsg7
(g11
S'\x04\x00\x00\x00\x00\x00\x00\x00'
p4167
tp4168
Rp4169
(i__main__
TreeNode
p4170
(dp4171
g5
(dp4172
sg44
I00
sbsg7
(g11
S'\x05\x00\x00\x00\x00\x00\x00\x00'
p4173
tp4174
Rp4175
(i__main__
TreeNode
p4176
(dp4177
g5
(dp4178
sg44
I00
sbsI-1
(i__main__
TreeNode
p4179
(dp4180
g5
(dp4181
sg44
I00
sbssg44
I85
sbsg7
(g11
S'\x03\x00\x00\x00\x00\x00\x00\x00'
p4182
tp4183
Rp4184
(i__main__
TreeNode
p4185
(dp4186
g5
(dp4187
sg44
I00
sbsg7
(g11
S'\x04\x00\x00\x00\x00\x00\x00\x00'
p4188
tp4189
Rp4190
(i__main__
TreeNode
p4191
(dp4192
g5
(dp4193
sg44
I00
sbsg7
(g11
S'\x05\x00\x00\x00\x00\x00\x00\x00'
p4194
tp4195
Rp4196
(i__main__
TreeNode
p4197
(dp4198
g5
(dp4199
sg44
I00
sbsg7
(g11
S'\x06\x00\x00\x00\x00\x00\x00\x00'
p4200
tp4201
Rp4202
(i__main__
TreeNode
p4203
(dp4204
g5
(dp4205
g7
(g11
S'\x01\x00\x00\x00\x00\x00\x00\x00'
p4206
tp4207
Rp4208
(i__main__
TreeNode
p4209
(dp4210
g5
(dp4211
sg44
I00
sbsg7
(g11
S'\x02\x00\x00\x00\x00\x00\x00\x00'
p4212
tp4213
Rp4214
(i__main__
TreeNode
p4215
(dp4216
g5
(dp4217
sg44
I00
sbsg7
(g11
S'\x03\x00\x00\x00\x00\x00\x00\x00'
p4218
tp4219
Rp4220
(i__main__
TreeNode
p4221
(dp4222
g5
(dp4223
sg44
I00
sbsg7
(g11
S'\x04\x00\x00\x00\x00\x00\x00\x00'
p4224
tp4225
Rp4226
(i__main__
TreeNode
p4227
(dp4228
g5
(dp4229
sg44
I00
sbsg7
(g11
S'\x05\x00\x00\x00\x00\x00\x00\x00'
p4230
tp4231
Rp4232
(i__main__
TreeNode
p4233
(dp4234
g5
(dp4235
sg44
I00
sbsg7
(g11
S'\x06\x00\x00\x00\x00\x00\x00\x00'
p4236
tp4237
Rp4238
(i__main__
TreeNode
p4239
(dp4240
g5
(dp4241
sg44
I00
sbsg7
(g11
S'\x07\x00\x00\x00\x00\x00\x00\x00'
p4242
tp4243
Rp4244
(i__main__
TreeNode
p4245
(dp4246
g5
(dp4247
sg44
I00
sbsI-1
(i__main__
TreeNode
p4248
(dp4249
g5
(dp4250
sg44
I00
sbssg44
I273
sbsI-1
(i__main__
TreeNode
p4251
(dp4252
g5
(dp4253
sg44
I00
sbssg44
I272
sbsg7
(g11
S'\x03\x00\x00\x00\x00\x00\x00\x00'
p4254
tp4255
Rp4256
(i__main__
TreeNode
p4257
(dp4258
g5
(dp4259
g7
(g11
S'\x01\x00\x00\x00\x00\x00\x00\x00'
p4260
tp4261
Rp4262
(i__main__
TreeNode
p4263
(dp4264
g5
(dp4265
g7
(g11
S'\x01\x00\x00\x00\x00\x00\x00\x00'
p4266
tp4267
Rp4268
(i__main__
TreeNode
p4269
(dp4270
g5
(dp4271
g7
(g11
S'\x01\x00\x00\x00\x00\x00\x00\x00'
p4272
tp4273
Rp4274
(i__main__
TreeNode
p4275
(dp4276
g5
(dp4277
g7
(g11
S'\x01\x00\x00\x00\x00\x00\x00\x00'
p4278
tp4279
Rp4280
(i__main__
TreeNode
p4281
(dp4282
g5
(dp4283
sg44
I00
sbsg7
(g11
S'\x02\x00\x00\x00\x00\x00\x00\x00'
p4284
tp4285
Rp4286
(i__main__
TreeNode
p4287
(dp4288
g5
(dp4289
sg44
I00
sbsg7
(g11
S'\x03\x00\x00\x00\x00\x00\x00\x00'
p4290
tp4291
Rp4292
(i__main__
TreeNode
p4293
(dp4294
g5
(dp4295
g7
(g11
S'\x01\x00\x00\x00\x00\x00\x00\x00'
p4296
tp4297
Rp4298
(i__main__
TreeNode
p4299
(dp4300
g5
(dp4301
sg44
I00
sbsg7
(g11
S'\x02\x00\x00\x00\x00\x00\x00\x00'
p4302
tp4303
Rp4304
(i__main__
TreeNode
p4305
(dp4306
g5
(dp4307
g7
(g11
S'\x01\x00\x00\x00\x00\x00\x00\x00'
p4308
tp4309
Rp4310
(i__main__
TreeNode
p4311
(dp4312
g5
(dp4313
g7
(g11
S'\x01\x00\x00\x00\x00\x00\x00\x00'
p4314
tp4315
Rp4316
(i__main__
TreeNode
p4317
(dp4318
g5
(dp4319
sg44
I01
sbsg7
(g11
S'\x02\x00\x00\x00\x00\x00\x00\x00'
p4320
tp4321
Rp4322
(i__main__
TreeNode
p4323
(dp4324
g5
(dp4325
sg44
I00
sbsg7
(g11
S'\x03\x00\x00\x00\x00\x00\x00\x00'
p4326
tp4327
Rp4328
(i__main__
TreeNode
p4329
(dp4330
g5
(dp4331
sg44
I00
sbsg7
(g11
S'\x04\x00\x00\x00\x00\x00\x00\x00'
p4332
tp4333
Rp4334
(i__main__
TreeNode
p4335
(dp4336
g5
(dp4337
sg44
I00
sbsg7
(g11
S'\x05\x00\x00\x00\x00\x00\x00\x00'
p4338
tp4339
Rp4340
(i__main__
TreeNode
p4341
(dp4342
g5
(dp4343
sg44
I00
sbsI-1
(i__main__
TreeNode
p4344
(dp4345
g5
(dp4346
sg44
I00
sbssg44
I129
sbsg7
(g11
S'\x02\x00\x00\x00\x00\x00\x00\x00'
p4347
tp4348
Rp4349
(i__main__
TreeNode
p4350
(dp4351
g5
(dp4352
sg44
I00
sbsg7
(g11
S'\x03\x00\x00\x00\x00\x00\x00\x00'
p4353
tp4354
Rp4355
(i__main__
TreeNode
p4356
(dp4357
g5
(dp4358
sg44
I01
sbsg7
(g11
S'\x04\x00\x00\x00\x00\x00\x00\x00'
p4359
tp4360
Rp4361
(i__main__
TreeNode
p4362
(dp4363
g5
(dp4364
sg44
I00
sbsg7
(g11
S'\x05\x00\x00\x00\x00\x00\x00\x00'
p4365
tp4366
Rp4367
(i__main__
TreeNode
p4368
(dp4369
g5
(dp4370
sg44
I00
sbsg7
(g11
S'\x06\x00\x00\x00\x00\x00\x00\x00'
p4371
tp4372
Rp4373
(i__main__
TreeNode
p4374
(dp4375
g5
(dp4376
sg44
I00
sbsg7
(g11
S'\x07\x00\x00\x00\x00\x00\x00\x00'
p4377
tp4378
Rp4379
(i__main__
TreeNode
p4380
(dp4381
g5
(dp4382
sg44
I00
sbsI-1
(i__main__
TreeNode
p4383
(dp4384
g5
(dp4385
sg44
I00
sbssg44
I273
sbsg7
(g11
S'\x03\x00\x00\x00\x00\x00\x00\x00'
p4386
tp4387
Rp4388
(i__main__
TreeNode
p4389
(dp4390
g5
(dp4391
g7
(g11
S'\x01\x00\x00\x00\x00\x00\x00\x00'
p4392
tp4393
Rp4394
(i__main__
TreeNode
p4395
(dp4396
g5
(dp4397
sg44
I00
sbsg7
(g11
S'\x02\x00\x00\x00\x00\x00\x00\x00'
p4398
tp4399
Rp4400
(i__main__
TreeNode
p4401
(dp4402
g5
(dp4403
sg44
I01
sbsg7
(g11
S'\x03\x00\x00\x00\x00\x00\x00\x00'
p4404
tp4405
Rp4406
(i__main__
TreeNode
p4407
(dp4408
g5
(dp4409
sg44
I00
sbsg7
(g11
S'\x04\x00\x00\x00\x00\x00\x00\x00'
p4410
tp4411
Rp4412
(i__main__
TreeNode
p4413
(dp4414
g5
(dp4415
sg44
I00
sbsg7
(g11
S'\x05\x00\x00\x00\x00\x00\x00\x00'
p4416
tp4417
Rp4418
(i__main__
TreeNode
p4419
(dp4420
g5
(dp4421
sg44
I00
sbsI-1
(i__main__
TreeNode
p4422
(dp4423
g5
(dp4424
sg44
I00
sbssg44
I127
sbsg7
(g11
S'\x04\x00\x00\x00\x00\x00\x00\x00'
p4425
tp4426
Rp4427
(i__main__
TreeNode
p4428
(dp4429
g5
(dp4430
g7
(g11
S'\x01\x00\x00\x00\x00\x00\x00\x00'
p4431
tp4432
Rp4433
(i__main__
TreeNode
p4434
(dp4435
g5
(dp4436
sg44
I00
sbsg7
(g11
S'\x02\x00\x00\x00\x00\x00\x00\x00'
p4437
tp4438
Rp4439
(i__main__
TreeNode
p4440
(dp4441
g5
(dp4442
sg44
I01
sbsg7
(g11
S'\x03\x00\x00\x00\x00\x00\x00\x00'
p4443
tp4444
Rp4445
(i__main__
TreeNode
p4446
(dp4447
g5
(dp4448
sg44
I00
sbsg7
(g11
S'\x04\x00\x00\x00\x00\x00\x00\x00'
p4449
tp4450
Rp4451
(i__main__
TreeNode
p4452
(dp4453
g5
(dp4454
sg44
I00
sbsg7
(g11
S'\x05\x00\x00\x00\x00\x00\x00\x00'
p4455
tp4456
Rp4457
(i__main__
TreeNode
p4458
(dp4459
g5
(dp4460
sg44
I00
sbsI-1
(i__main__
TreeNode
p4461
(dp4462
g5
(dp4463
sg44
I00
sbssg44
I128
sbsg7
(g11
S'\x05\x00\x00\x00\x00\x00\x00\x00'
p4464
tp4465
Rp4466
(i__main__
TreeNode
p4467
(dp4468
g5
(dp4469
sg44
I00
sbsI-1
(i__main__
TreeNode
p4470
(dp4471
g5
(dp4472
sg44
I00
sbssg44
I81
sbsg7
(g11
S'\x04\x00\x00\x00\x00\x00\x00\x00'
p4473
tp4474
Rp4475
(i__main__
TreeNode
p4476
(dp4477
g5
(dp4478
g7
(g11
S'\x01\x00\x00\x00\x00\x00\x00\x00'
p4479
tp4480
Rp4481
(i__main__
TreeNode
p4482
(dp4483
g5
(dp4484
sg44
I00
sbsg7
(g11
S'\x02\x00\x00\x00\x00\x00\x00\x00'
p4485
tp4486
Rp4487
(i__main__
TreeNode
p4488
(dp4489
g5
(dp4490
sg44
I00
sbsg7
(g11
S'\x03\x00\x00\x00\x00\x00\x00\x00'
p4491
tp4492
Rp4493
(i__main__
TreeNode
p4494
(dp4495
g5
(dp4496
sg44
I00
sbsg7
(g11
S'\x04\x00\x00\x00\x00\x00\x00\x00'
p4497
tp4498
Rp4499
(i__main__
TreeNode
p4500
(dp4501
g5
(dp4502
sg44
I00
sbsg7
(g11
S'\x05\x00\x00\x00\x00\x00\x00\x00'
p4503
tp4504
Rp4505
(i__main__
TreeNode
p4506
(dp4507
g5
(dp4508
sg44
I00
sbsg7
(g11
S'\x06\x00\x00\x00\x00\x00\x00\x00'
p4509
tp4510
Rp4511
(i__main__
TreeNode
p4512
(dp4513
g5
(dp4514
sg44
I00
sbsg7
(g11
S'\x07\x00\x00\x00\x00\x00\x00\x00'
p4515
tp4516
Rp4517
(i__main__
TreeNode
p4518
(dp4519
g5
(dp4520
sg44
I00
sbsI-1
(i__main__
TreeNode
p4521
(dp4522
g5
(dp4523
sg44
I00
sbssg44
I273
sbsg7
(g11
S'\x05\x00\x00\x00\x00\x00\x00\x00'
p4524
tp4525
Rp4526
(i__main__
TreeNode
p4527
(dp4528
g5
(dp4529
g7
(g11
S'\x01\x00\x00\x00\x00\x00\x00\x00'
p4530
tp4531
Rp4532
(i__main__
TreeNode
p4533
(dp4534
g5
(dp4535
sg44
I00
sbsg7
(g11
S'\x02\x00\x00\x00\x00\x00\x00\x00'
p4536
tp4537
Rp4538
(i__main__
TreeNode
p4539
(dp4540
g5
(dp4541
sg44
I00
sbsg7
(g11
S'\x03\x00\x00\x00\x00\x00\x00\x00'
p4542
tp4543
Rp4544
(i__main__
TreeNode
p4545
(dp4546
g5
(dp4547
g7
(g11
S'\x01\x00\x00\x00\x00\x00\x00\x00'
p4548
tp4549
Rp4550
(i__main__
TreeNode
p4551
(dp4552
g5
(dp4553
sg44
I00
sbsg7
(g11
S'\x02\x00\x00\x00\x00\x00\x00\x00'
p4554
tp4555
Rp4556
(i__main__
TreeNode
p4557
(dp4558
g5
(dp4559
sg44
I00
sbsg7
(g11
S'\x03\x00\x00\x00\x00\x00\x00\x00'
p4560
tp4561
Rp4562
(i__main__
TreeNode
p4563
(dp4564
g5
(dp4565
sg44
I00
sbsg7
(g11
S'\x04\x00\x00\x00\x00\x00\x00\x00'
p4566
tp4567
Rp4568
(i__main__
TreeNode
p4569
(dp4570
g5
(dp4571
sg44
I00
sbsg7
(g11
S'\x05\x00\x00\x00\x00\x00\x00\x00'
p4572
tp4573
Rp4574
(i__main__
TreeNode
p4575
(dp4576
g5
(dp4577
sg44
I00
sbsI-1
(i__main__
TreeNode
p4578
(dp4579
g5
(dp4580
sg44
I00
sbssg44
I88
sbsg7
(g11
S'\x04\x00\x00\x00\x00\x00\x00\x00'
p4581
tp4582
Rp4583
(i__main__
TreeNode
p4584
(dp4585
g5
(dp4586
sg44
I00
sbsg7
(g11
S'\x05\x00\x00\x00\x00\x00\x00\x00'
p4587
tp4588
Rp4589
(i__main__
TreeNode
p4590
(dp4591
g5
(dp4592
sg44
I00
sbsI-1
(i__main__
TreeNode
p4593
(dp4594
g5
(dp4595
sg44
I00
sbssg44
I82
sbsg7
(g11
S'\x06\x00\x00\x00\x00\x00\x00\x00'
p4596
tp4597
Rp4598
(i__main__
TreeNode
p4599
(dp4600
g5
(dp4601
sg44
I00
sbsg7
(g11
S'\x07\x00\x00\x00\x00\x00\x00\x00'
p4602
tp4603
Rp4604
(i__main__
TreeNode
p4605
(dp4606
g5
(dp4607
sg44
I00
sbsI-1
(i__main__
TreeNode
p4608
(dp4609
g5
(dp4610
sg44
I00
sbssg44
I87
sbsg7
(g11
S'\x02\x00\x00\x00\x00\x00\x00\x00'
p4611
tp4612
Rp4613
(i__main__
TreeNode
p4614
(dp4615
g5
(dp4616
sg44
I01
sbsg7
(g11
S'\x03\x00\x00\x00\x00\x00\x00\x00'
p4617
tp4618
Rp4619
(i__main__
TreeNode
p4620
(dp4621
g5
(dp4622
sg44
I01
sbsI-1
(i__main__
TreeNode
p4623
(dp4624
g5
(dp4625
sg44
I00
sbssg44
I11
sbsg7
(g11
S'\x02\x00\x00\x00\x00\x00\x00\x00'
p4626
tp4627
Rp4628
(i__main__
TreeNode
p4629
(dp4630
g5
(dp4631
g7
(g11
S'\x01\x00\x00\x00\x00\x00\x00\x00'
p4632
tp4633
Rp4634
(i__main__
TreeNode
p4635
(dp4636
g5
(dp4637
sg44
I00
sbsg7
(g11
S'\x02\x00\x00\x00\x00\x00\x00\x00'
p4638
tp4639
Rp4640
(i__main__
TreeNode
p4641
(dp4642
g5
(dp4643
sg44
I00
sbsg7
(g11
S'\x03\x00\x00\x00\x00\x00\x00\x00'
p4644
tp4645
Rp4646
(i__main__
TreeNode
p4647
(dp4648
g5
(dp4649
sg44
I00
sbsg7
(g11
S'\x04\x00\x00\x00\x00\x00\x00\x00'
p4650
tp4651
Rp4652
(i__main__
TreeNode
p4653
(dp4654
g5
(dp4655
g7
(g11
S'\x01\x00\x00\x00\x00\x00\x00\x00'
p4656
tp4657
Rp4658
(i__main__
TreeNode
p4659
(dp4660
g5
(dp4661
sg44
I00
sbsg7
(g11
S'\x02\x00\x00\x00\x00\x00\x00\x00'
p4662
tp4663
Rp4664
(i__main__
TreeNode
p4665
(dp4666
g5
(dp4667
sg44
I00
sbsg7
(g11
S'\x03\x00\x00\x00\x00\x00\x00\x00'
p4668
tp4669
Rp4670
(i__main__
TreeNode
p4671
(dp4672
g5
(dp4673
sg44
I00
sbsg7
(g11
S'\x04\x00\x00\x00\x00\x00\x00\x00'
p4674
tp4675
Rp4676
(i__main__
TreeNode
p4677
(dp4678
g5
(dp4679
sg44
I00
sbsg7
(g11
S'\x05\x00\x00\x00\x00\x00\x00\x00'
p4680
tp4681
Rp4682
(i__main__
TreeNode
p4683
(dp4684
g5
(dp4685
sg44
I00
sbsI-1
(i__main__
TreeNode
p4686
(dp4687
g5
(dp4688
sg44
I00
sbssg44
I81
sbsg7
(g11
S'\x05\x00\x00\x00\x00\x00\x00\x00'
p4689
tp4690
Rp4691
(i__main__
TreeNode
p4692
(dp4693
g5
(dp4694
sg44
I00
sbsI-1
(i__main__
TreeNode
p4695
(dp4696
g5
(dp4697
sg44
I00
sbssg44
I85
sbsg7
(g11
S'\x03\x00\x00\x00\x00\x00\x00\x00'
p4698
tp4699
Rp4700
(i__main__
TreeNode
p4701
(dp4702
g5
(dp4703
sg44
I00
sbsg7
(g11
S'\x04\x00\x00\x00\x00\x00\x00\x00'
p4704
tp4705
Rp4706
(i__main__
TreeNode
p4707
(dp4708
g5
(dp4709
sg44
I00
sbsg7
(g11
S'\x05\x00\x00\x00\x00\x00\x00\x00'
p4710
tp4711
Rp4712
(i__main__
TreeNode
p4713
(dp4714
g5
(dp4715
g7
(g11
S'\x01\x00\x00\x00\x00\x00\x00\x00'
p4716
tp4717
Rp4718
(i__main__
TreeNode
p4719
(dp4720
g5
(dp4721
sg44
I00
sbsg7
(g11
S'\x02\x00\x00\x00\x00\x00\x00\x00'
p4722
tp4723
Rp4724
(i__main__
TreeNode
p4725
(dp4726
g5
(dp4727
sg44
I00
sbsg7
(g11
S'\x03\x00\x00\x00\x00\x00\x00\x00'
p4728
tp4729
Rp4730
(i__main__
TreeNode
p4731
(dp4732
g5
(dp4733
sg44
I00
sbsg7
(g11
S'\x04\x00\x00\x00\x00\x00\x00\x00'
p4734
tp4735
Rp4736
(i__main__
TreeNode
p4737
(dp4738
g5
(dp4739
sg44
I00
sbsg7
(g11
S'\x05\x00\x00\x00\x00\x00\x00\x00'
p4740
tp4741
Rp4742
(i__main__
TreeNode
p4743
(dp4744
g5
(dp4745
sg44
I01
sbsI-1
(i__main__
TreeNode
p4746
(dp4747
g5
(dp4748
sg44
I00
sbssg44
I85
sbsI-1
(i__main__
TreeNode
p4749
(dp4750
g5
(dp4751
sg44
I00
sbssg44
I84
sbsg7
(g11
S'\x02\x00\x00\x00\x00\x00\x00\x00'
p4752
tp4753
Rp4754
(i__main__
TreeNode
p4755
(dp4756
g5
(dp4757
sg44
I00
sbsg7
(g11
S'\x03\x00\x00\x00\x00\x00\x00\x00'
p4758
tp4759
Rp4760
(i__main__
TreeNode
p4761
(dp4762
g5
(dp4763
sg44
I00
sbsg7
(g11
S'\x04\x00\x00\x00\x00\x00\x00\x00'
p4764
tp4765
Rp4766
(i__main__
TreeNode
p4767
(dp4768
g5
(dp4769
sg44
I00
sbsg7
(g11
S'\x05\x00\x00\x00\x00\x00\x00\x00'
p4770
tp4771
Rp4772
(i__main__
TreeNode
p4773
(dp4774
g5
(dp4775
sg44
I00
sbsg7
(g11
S'\x06\x00\x00\x00\x00\x00\x00\x00'
p4776
tp4777
Rp4778
(i__main__
TreeNode
p4779
(dp4780
g5
(dp4781
sg44
I00
sbsI-1
(i__main__
TreeNode
p4782
(dp4783
g5
(dp4784
sg44
I00
sbssg44
I272
sbsg7
(g11
S'\x04\x00\x00\x00\x00\x00\x00\x00'
p4785
tp4786
Rp4787
(i__main__
TreeNode
p4788
(dp4789
g5
(dp4790
g7
(g11
S'\x01\x00\x00\x00\x00\x00\x00\x00'
p4791
tp4792
Rp4793
(i__main__
TreeNode
p4794
(dp4795
g5
(dp4796
g7
(g11
S'\x01\x00\x00\x00\x00\x00\x00\x00'
p4797
tp4798
Rp4799
(i__main__
TreeNode
p4800
(dp4801
g5
(dp4802
sg44
I00
sbsg7
(g11
S'\x02\x00\x00\x00\x00\x00\x00\x00'
p4803
tp4804
Rp4805
(i__main__
TreeNode
p4806
(dp4807
g5
(dp4808
g7
(g11
S'\x01\x00\x00\x00\x00\x00\x00\x00'
p4809
tp4810
Rp4811
(i__main__
TreeNode
p4812
(dp4813
g5
(dp4814
sg44
I00
sbsg7
(g11
S'\x02\x00\x00\x00\x00\x00\x00\x00'
p4815
tp4816
Rp4817
(i__main__
TreeNode
p4818
(dp4819
g5
(dp4820
sg44
I00
sbsg7
(g11
S'\x03\x00\x00\x00\x00\x00\x00\x00'
p4821
tp4822
Rp4823
(i__main__
TreeNode
p4824
(dp4825
g5
(dp4826
sg44
I00
sbsg7
(g11
S'\x04\x00\x00\x00\x00\x00\x00\x00'
p4827
tp4828
Rp4829
(i__main__
TreeNode
p4830
(dp4831
g5
(dp4832
sg44
I00
sbsg7
(g11
S'\x05\x00\x00\x00\x00\x00\x00\x00'
p4833
tp4834
Rp4835
(i__main__
TreeNode
p4836
(dp4837
g5
(dp4838
sg44
I00
sbsI-1
(i__main__
TreeNode
p4839
(dp4840
g5
(dp4841
sg44
I00
sbssg44
I88
sbsg7
(g11
S'\x03\x00\x00\x00\x00\x00\x00\x00'
p4842
tp4843
Rp4844
(i__main__
TreeNode
p4845
(dp4846
g5
(dp4847
sg44
I00
sbsg7
(g11
S'\x04\x00\x00\x00\x00\x00\x00\x00'
p4848
tp4849
Rp4850
(i__main__
TreeNode
p4851
(dp4852
g5
(dp4853
g7
(g11
S'\x01\x00\x00\x00\x00\x00\x00\x00'
p4854
tp4855
Rp4856
(i__main__
TreeNode
p4857
(dp4858
g5
(dp4859
sg44
I00
sbsg7
(g11
S'\x02\x00\x00\x00\x00\x00\x00\x00'
p4860
tp4861
Rp4862
(i__main__
TreeNode
p4863
(dp4864
g5
(dp4865
sg44
I00
sbsg7
(g11
S'\x03\x00\x00\x00\x00\x00\x00\x00'
p4866
tp4867
Rp4868
(i__main__
TreeNode
p4869
(dp4870
g5
(dp4871
sg44
I00
sbsg7
(g11
S'\x04\x00\x00\x00\x00\x00\x00\x00'
p4872
tp4873
Rp4874
(i__main__
TreeNode
p4875
(dp4876
g5
(dp4877
sg44
I00
sbsg7
(g11
S'\x05\x00\x00\x00\x00\x00\x00\x00'
p4878
tp4879
Rp4880
(i__main__
TreeNode
p4881
(dp4882
g5
(dp4883
sg44
I00
sbsg7
(g11
S'\x07\x00\x00\x00\x00\x00\x00\x00'
p4884
tp4885
Rp4886
(i__main__
TreeNode
p4887
(dp4888
g5
(dp4889
sg44
I00
sbsI-1
(i__main__
TreeNode
p4890
(dp4891
g5
(dp4892
sg44
I00
sbssg44
I273
sbsg7
(g11
S'\x05\x00\x00\x00\x00\x00\x00\x00'
p4893
tp4894
Rp4895
(i__main__
TreeNode
p4896
(dp4897
g5
(dp4898
sg44
I00
sbsI-1
(i__main__
TreeNode
p4899
(dp4900
g5
(dp4901
sg44
I00
sbssg44
I86
sbsg7
(g11
S'\x02\x00\x00\x00\x00\x00\x00\x00'
p4902
tp4903
Rp4904
(i__main__
TreeNode
p4905
(dp4906
g5
(dp4907
g7
(g11
S'\x01\x00\x00\x00\x00\x00\x00\x00'
p4908
tp4909
Rp4910
(i__main__
TreeNode
p4911
(dp4912
g5
(dp4913
g7
(g11
S'\x01\x00\x00\x00\x00\x00\x00\x00'
p4914
tp4915
Rp4916
(i__main__
TreeNode
p4917
(dp4918
g5
(dp4919
g7
(g11
S'\x01\x00\x00\x00\x00\x00\x00\x00'
p4920
tp4921
Rp4922
(i__main__
TreeNode
p4923
(dp4924
g5
(dp4925
sg44
I00
sbsg7
(g11
S'\x02\x00\x00\x00\x00\x00\x00\x00'
p4926
tp4927
Rp4928
(i__main__
TreeNode
p4929
(dp4930
g5
(dp4931
sg44
I00
sbsg7
(g11
S'\x03\x00\x00\x00\x00\x00\x00\x00'
p4932
tp4933
Rp4934
(i__main__
TreeNode
p4935
(dp4936
g5
(dp4937
sg44
I00
sbsg7
(g11
S'\x04\x00\x00\x00\x00\x00\x00\x00'
p4938
tp4939
Rp4940
(i__main__
TreeNode
p4941
(dp4942
g5
(dp4943
sg44
I00
sbsg7
(g11
S'\x05\x00\x00\x00\x00\x00\x00\x00'
p4944
tp4945
Rp4946
(i__main__
TreeNode
p4947
(dp4948
g5
(dp4949
sg44
I00
sbsI-1
(i__main__
TreeNode
p4950
(dp4951
g5
(dp4952
sg44
I00
sbssg44
I88
sbsg7
(g11
S'\x02\x00\x00\x00\x00\x00\x00\x00'
p4953
tp4954
Rp4955
(i__main__
TreeNode
p4956
(dp4957
g5
(dp4958
sg44
I01
sbsg7
(g11
S'\x04\x00\x00\x00\x00\x00\x00\x00'
p4959
tp4960
Rp4961
(i__main__
TreeNode
p4962
(dp4963
g5
(dp4964
sg44
I01
sbsI-1
(i__main__
TreeNode
p4965
(dp4966
g5
(dp4967
sg44
I00
sbssg44
I84
sbsg7
(g11
S'\x02\x00\x00\x00\x00\x00\x00\x00'
p4968
tp4969
Rp4970
(i__main__
TreeNode
p4971
(dp4972
g5
(dp4973
sg44
I00
sbsg7
(g11
S'\x03\x00\x00\x00\x00\x00\x00\x00'
p4974
tp4975
Rp4976
(i__main__
TreeNode
p4977
(dp4978
g5
(dp4979
sg44
I00
sbsg7
(g11
S'\x04\x00\x00\x00\x00\x00\x00\x00'
p4980
tp4981
Rp4982
(i__main__
TreeNode
p4983
(dp4984
g5
(dp4985
sg44
I00
sbsg7
(g11
S'\x05\x00\x00\x00\x00\x00\x00\x00'
p4986
tp4987
Rp4988
(i__main__
TreeNode
p4989
(dp4990
g5
(dp4991
sg44
I00
sbsg7
(g11
S'\x06\x00\x00\x00\x00\x00\x00\x00'
p4992
tp4993
Rp4994
(i__main__
TreeNode
p4995
(dp4996
g5
(dp4997
sg44
I01
sbsg7
(g11
S'\x07\x00\x00\x00\x00\x00\x00\x00'
p4998
tp4999
Rp5000
(i__main__
TreeNode
p5001
(dp5002
g5
(dp5003
sg44
I00
sbsg7
(g11
S'\x08\x00\x00\x00\x00\x00\x00\x00'
p5004
tp5005
Rp5006
(i__main__
TreeNode
p5007
(dp5008
g5
(dp5009
sg44
I00
sbsg7
(g11
S'\t\x00\x00\x00\x00\x00\x00\x00'
p5010
tp5011
Rp5012
(i__main__
TreeNode
p5013
(dp5014
g5
(dp5015
sg44
I00
sbsg7
(g11
S'\n\x00\x00\x00\x00\x00\x00\x00'
p5016
tp5017
Rp5018
(i__main__
TreeNode
p5019
(dp5020
g5
(dp5021
sg44
I01
sbsg7
(g11
S'\x0b\x00\x00\x00\x00\x00\x00\x00'
p5022
tp5023
Rp5024
(i__main__
TreeNode
p5025
(dp5026
g5
(dp5027
sg44
I00
sbsg7
(g11
S'\x0c\x00\x00\x00\x00\x00\x00\x00'
p5028
tp5029
Rp5030
(i__main__
TreeNode
p5031
(dp5032
g5
(dp5033
sg44
I00
sbsg7
(g11
S'\r\x00\x00\x00\x00\x00\x00\x00'
p5034
tp5035
Rp5036
(i__main__
TreeNode
p5037
(dp5038
g5
(dp5039
sg44
I00
sbsg7
(g11
S'\x0e\x00\x00\x00\x00\x00\x00\x00'
p5040
tp5041
Rp5042
(i__main__
TreeNode
p5043
(dp5044
g5
(dp5045
sg44
I00
sbsg7
(g11
S'\x12\x00\x00\x00\x00\x00\x00\x00'
p5046
tp5047
Rp5048
(i__main__
TreeNode
p5049
(dp5050
g5
(dp5051
sg44
I00
sbsI-1
(i__main__
TreeNode
p5052
(dp5053
g5
(dp5054
sg44
I00
sbssg44
I263
sbsg7
(g11
S'\x03\x00\x00\x00\x00\x00\x00\x00'
p5055
tp5056
Rp5057
(i__main__
TreeNode
p5058
(dp5059
g5
(dp5060
sg44
I00
sbsg7
(g11
S'\x04\x00\x00\x00\x00\x00\x00\x00'
p5061
tp5062
Rp5063
(i__main__
TreeNode
p5064
(dp5065
g5
(dp5066
sg44
I00
sbsg7
(g11
S'\x05\x00\x00\x00\x00\x00\x00\x00'
p5067
tp5068
Rp5069
(i__main__
TreeNode
p5070
(dp5071
g5
(dp5072
sg44
I00
sbsg7
(g11
S'\x06\x00\x00\x00\x00\x00\x00\x00'
p5073
tp5074
Rp5075
(i__main__
TreeNode
p5076
(dp5077
g5
(dp5078
sg44
I00
sbsI-1
(i__main__
TreeNode
p5079
(dp5080
g5
(dp5081
sg44
I00
sbssg44
I272
sbsg7
(g11
S'\x05\x00\x00\x00\x00\x00\x00\x00'
p5082
tp5083
Rp5084
(i__main__
TreeNode
p5085
(dp5086
g5
(dp5087
sg44
I00
sbsg7
(g11
S'\x06\x00\x00\x00\x00\x00\x00\x00'
p5088
tp5089
Rp5090
(i__main__
TreeNode
p5091
(dp5092
g5
(dp5093
sg44
I00
sbsg7
(g11
S'\x07\x00\x00\x00\x00\x00\x00\x00'
p5094
tp5095
Rp5096
(i__main__
TreeNode
p5097
(dp5098
g5
(dp5099
g7
(g11
S'\x01\x00\x00\x00\x00\x00\x00\x00'
p5100
tp5101
Rp5102
(i__main__
TreeNode
p5103
(dp5104
g5
(dp5105
sg44
I00
sbsg7
(g11
S'\x02\x00\x00\x00\x00\x00\x00\x00'
p5106
tp5107
Rp5108
(i__main__
TreeNode
p5109
(dp5110
g5
(dp5111
sg44
I00
sbsg7
(g11
S'\x03\x00\x00\x00\x00\x00\x00\x00'
p5112
tp5113
Rp5114
(i__main__
TreeNode
p5115
(dp5116
g5
(dp5117
sg44
I00
sbsg7
(g11
S'\x04\x00\x00\x00\x00\x00\x00\x00'
p5118
tp5119
Rp5120
(i__main__
TreeNode
p5121
(dp5122
g5
(dp5123
sg44
I00
sbsg7
(g11
S'\x05\x00\x00\x00\x00\x00\x00\x00'
p5124
tp5125
Rp5126
(i__main__
TreeNode
p5127
(dp5128
g5
(dp5129
sg44
I00
sbsI-1
(i__main__
TreeNode
p5130
(dp5131
g5
(dp5132
sg44
I00
sbssg44
I81
sbsg7
(g11
S'\x08\x00\x00\x00\x00\x00\x00\x00'
p5133
tp5134
Rp5135
(i__main__
TreeNode
p5136
(dp5137
g5
(dp5138
sg44
I00
sbsg7
(g11
S'\t\x00\x00\x00\x00\x00\x00\x00'
p5139
tp5140
Rp5141
(i__main__
TreeNode
p5142
(dp5143
g5
(dp5144
sg44
I00
sbsg7
(g11
S'\n\x00\x00\x00\x00\x00\x00\x00'
p5145
tp5146
Rp5147
(i__main__
TreeNode
p5148
(dp5149
g5
(dp5150
sg44
I00
sbsg7
(g11
S'\x0b\x00\x00\x00\x00\x00\x00\x00'
p5151
tp5152
Rp5153
(i__main__
TreeNode
p5154
(dp5155
g5
(dp5156
sg44
I00
sbsg7
(g11
S'\x0c\x00\x00\x00\x00\x00\x00\x00'
p5157
tp5158
Rp5159
(i__main__
TreeNode
p5160
(dp5161
g5
(dp5162
sg44
I00
sbsg7
(g11
S'\r\x00\x00\x00\x00\x00\x00\x00'
p5163
tp5164
Rp5165
(i__main__
TreeNode
p5166
(dp5167
g5
(dp5168
sg44
I00
sbsg7
(g11
S'\x0e\x00\x00\x00\x00\x00\x00\x00'
p5169
tp5170
Rp5171
(i__main__
TreeNode
p5172
(dp5173
g5
(dp5174
sg44
I00
sbsg7
(g11
S'\x0f\x00\x00\x00\x00\x00\x00\x00'
p5175
tp5176
Rp5177
(i__main__
TreeNode
p5178
(dp5179
g5
(dp5180
sg44
I00
sbsg7
(g11
S'\x10\x00\x00\x00\x00\x00\x00\x00'
p5181
tp5182
Rp5183
(i__main__
TreeNode
p5184
(dp5185
g5
(dp5186
g7
(g11
S'\x03\x00\x00\x00\x00\x00\x00\x00'
p5187
tp5188
Rp5189
(i__main__
TreeNode
p5190
(dp5191
g5
(dp5192
sg44
I01
sbsg7
(g11
S'\x04\x00\x00\x00\x00\x00\x00\x00'
p5193
tp5194
Rp5195
(i__main__
TreeNode
p5196
(dp5197
g5
(dp5198
sg44
I00
sbsg7
(g11
S'\x05\x00\x00\x00\x00\x00\x00\x00'
p5199
tp5200
Rp5201
(i__main__
TreeNode
p5202
(dp5203
g5
(dp5204
sg44
I00
sbsI-1
(i__main__
TreeNode
p5205
(dp5206
g5
(dp5207
sg44
I00
sbssg44
I85
sbsg7
(g11
S'\x11\x00\x00\x00\x00\x00\x00\x00'
p5208
tp5209
Rp5210
(i__main__
TreeNode
p5211
(dp5212
g5
(dp5213
sg44
I00
sbsg7
(g11
S'\x12\x00\x00\x00\x00\x00\x00\x00'
p5214
tp5215
Rp5216
(i__main__
TreeNode
p5217
(dp5218
g5
(dp5219
sg44
I00
sbsg7
(g11
S'\x13\x00\x00\x00\x00\x00\x00\x00'
p5220
tp5221
Rp5222
(i__main__
TreeNode
p5223
(dp5224
g5
(dp5225
sg44
I00
sbsg7
(g11
S'\x14\x00\x00\x00\x00\x00\x00\x00'
p5226
tp5227
Rp5228
(i__main__
TreeNode
p5229
(dp5230
g5
(dp5231
sg44
I00
sbsg7
(g11
S'\x15\x00\x00\x00\x00\x00\x00\x00'
p5232
tp5233
Rp5234
(i__main__
TreeNode
p5235
(dp5236
g5
(dp5237
sg44
I00
sbsg7
(g11
S'\x16\x00\x00\x00\x00\x00\x00\x00'
p5238
tp5239
Rp5240
(i__main__
TreeNode
p5241
(dp5242
g5
(dp5243
sg44
I00
sbsg7
(g11
S'\x17\x00\x00\x00\x00\x00\x00\x00'
p5244
tp5245
Rp5246
(i__main__
TreeNode
p5247
(dp5248
g5
(dp5249
sg44
I00
sbsg7
(g11
S'\x18\x00\x00\x00\x00\x00\x00\x00'
p5250
tp5251
Rp5252
(i__main__
TreeNode
p5253
(dp5254
g5
(dp5255
sg44
I00
sbsI-1
(i__main__
TreeNode
p5256
(dp5257
g5
(dp5258
sg44
I00
sbssg44
I268
sbsg7
(g11
S'\x04\x00\x00\x00\x00\x00\x00\x00'
p5259
tp5260
Rp5261
(i__main__
TreeNode
p5262
(dp5263
g5
(dp5264
g7
(g11
S'\x01\x00\x00\x00\x00\x00\x00\x00'
p5265
tp5266
Rp5267
(i__main__
TreeNode
p5268
(dp5269
g5
(dp5270
sg44
I00
sbsg7
(g11
S'\x02\x00\x00\x00\x00\x00\x00\x00'
p5271
tp5272
Rp5273
(i__main__
TreeNode
p5274
(dp5275
g5
(dp5276
sg44
I00
sbsg7
(g11
S'\x03\x00\x00\x00\x00\x00\x00\x00'
p5277
tp5278
Rp5279
(i__main__
TreeNode
p5280
(dp5281
g5
(dp5282
g7
(g11
S'\x01\x00\x00\x00\x00\x00\x00\x00'
p5283
tp5284
Rp5285
(i__main__
TreeNode
p5286
(dp5287
g5
(dp5288
g7
(g11
S'\x02\x00\x00\x00\x00\x00\x00\x00'
p5289
tp5290
Rp5291
(i__main__
TreeNode
p5292
(dp5293
g5
(dp5294
sg44
I01
sbsg7
(g11
S'\x03\x00\x00\x00\x00\x00\x00\x00'
p5295
tp5296
Rp5297
(i__main__
TreeNode
p5298
(dp5299
g5
(dp5300
sg44
I00
sbsg7
(g11
S'\x04\x00\x00\x00\x00\x00\x00\x00'
p5301
tp5302
Rp5303
(i__main__
TreeNode
p5304
(dp5305
g5
(dp5306
sg44
I01
sbsg7
(g11
S'\x05\x00\x00\x00\x00\x00\x00\x00'
p5307
tp5308
Rp5309
(i__main__
TreeNode
p5310
(dp5311
g5
(dp5312
sg44
I01
sbsI-1
(i__main__
TreeNode
p5313
(dp5314
g5
(dp5315
sg44
I01
sbssg44
I88
sbsg7
(g11
S'\x02\x00\x00\x00\x00\x00\x00\x00'
p5316
tp5317
Rp5318
(i__main__
TreeNode
p5319
(dp5320
g5
(dp5321
sg44
I01
sbsg7
(g11
S'\x03\x00\x00\x00\x00\x00\x00\x00'
p5322
tp5323
Rp5324
(i__main__
TreeNode
p5325
(dp5326
g5
(dp5327
sg44
I00
sbsg7
(g11
S'\x04\x00\x00\x00\x00\x00\x00\x00'
p5328
tp5329
Rp5330
(i__main__
TreeNode
p5331
(dp5332
g5
(dp5333
sg44
I00
sbsg7
(g11
S'\x06\x00\x00\x00\x00\x00\x00\x00'
p5334
tp5335
Rp5336
(i__main__
TreeNode
p5337
(dp5338
g5
(dp5339
sg44
I00
sbsg7
(g11
S'\x08\x00\x00\x00\x00\x00\x00\x00'
p5340
tp5341
Rp5342
(i__main__
TreeNode
p5343
(dp5344
g5
(dp5345
sg44
I00
sbsI-1
(i__main__
TreeNode
p5346
(dp5347
g5
(dp5348
sg44
I01
sbssg44
I264
sbsg7
(g11
S'\x04\x00\x00\x00\x00\x00\x00\x00'
p5349
tp5350
Rp5351
(i__main__
TreeNode
p5352
(dp5353
g5
(dp5354
sg44
I01
sbsg7
(g11
S'\x06\x00\x00\x00\x00\x00\x00\x00'
p5355
tp5356
Rp5357
(i__main__
TreeNode
p5358
(dp5359
g5
(dp5360
sg44
I01
sbsg7
(g11
S'\x07\x00\x00\x00\x00\x00\x00\x00'
p5361
tp5362
Rp5363
(i__main__
TreeNode
p5364
(dp5365
g5
(dp5366
sg44
I01
sbsg7
(g11
S'\x08\x00\x00\x00\x00\x00\x00\x00'
p5367
tp5368
Rp5369
(i__main__
TreeNode
p5370
(dp5371
g5
(dp5372
sg44
I01
sbsg7
(g11
S'\t\x00\x00\x00\x00\x00\x00\x00'
p5373
tp5374
Rp5375
(i__main__
TreeNode
p5376
(dp5377
g5
(dp5378
sg44
I00
sbsg7
(g11
S'\x0b\x00\x00\x00\x00\x00\x00\x00'
p5379
tp5380
Rp5381
(i__main__
TreeNode
p5382
(dp5383
g5
(dp5384
sg44
I01
sbsg7
(g11
S'\x0c\x00\x00\x00\x00\x00\x00\x00'
p5385
tp5386
Rp5387
(i__main__
TreeNode
p5388
(dp5389
g5
(dp5390
sg44
I01
sbsg7
(g11
S'\x0e\x00\x00\x00\x00\x00\x00\x00'
p5391
tp5392
Rp5393
(i__main__
TreeNode
p5394
(dp5395
g5
(dp5396
sg44
I01
sbsg7
(g11
S'\x0f\x00\x00\x00\x00\x00\x00\x00'
p5397
tp5398
Rp5399
(i__main__
TreeNode
p5400
(dp5401
g5
(dp5402
sg44
I00
sbsg7
(g11
S'\x11\x00\x00\x00\x00\x00\x00\x00'
p5403
tp5404
Rp5405
(i__main__
TreeNode
p5406
(dp5407
g5
(dp5408
sg44
I01
sbsg7
(g11
S'\x12\x00\x00\x00\x00\x00\x00\x00'
p5409
tp5410
Rp5411
(i__main__
TreeNode
p5412
(dp5413
g5
(dp5414
sg44
I01
sbsg7
(g11
S'\x14\x00\x00\x00\x00\x00\x00\x00'
p5415
tp5416
Rp5417
(i__main__
TreeNode
p5418
(dp5419
g5
(dp5420
sg44
I01
sbsg7
(g11
S'\x15\x00\x00\x00\x00\x00\x00\x00'
p5421
tp5422
Rp5423
(i__main__
TreeNode
p5424
(dp5425
g5
(dp5426
sg44
I01
sbsg7
(g11
S'\x16\x00\x00\x00\x00\x00\x00\x00'
p5427
tp5428
Rp5429
(i__main__
TreeNode
p5430
(dp5431
g5
(dp5432
sg44
I01
sbsg7
(g11
S'\x17\x00\x00\x00\x00\x00\x00\x00'
p5433
tp5434
Rp5435
(i__main__
TreeNode
p5436
(dp5437
g5
(dp5438
sg44
I01
sbsg7
(g11
S'\x18\x00\x00\x00\x00\x00\x00\x00'
p5439
tp5440
Rp5441
(i__main__
TreeNode
p5442
(dp5443
g5
(dp5444
sg44
I01
sbsg7
(g11
S'\x19\x00\x00\x00\x00\x00\x00\x00'
p5445
tp5446
Rp5447
(i__main__
TreeNode
p5448
(dp5449
g5
(dp5450
sg44
I01
sbsg7
(g11
S'\x1c\x00\x00\x00\x00\x00\x00\x00'
p5451
tp5452
Rp5453
(i__main__
TreeNode
p5454
(dp5455
g5
(dp5456
sg44
I00
sbsg7
(g11
S'\x1d\x00\x00\x00\x00\x00\x00\x00'
p5457
tp5458
Rp5459
(i__main__
TreeNode
p5460
(dp5461
g5
(dp5462
sg44
I01
sbsg7
(g11
S'\x1e\x00\x00\x00\x00\x00\x00\x00'
p5463
tp5464
Rp5465
(i__main__
TreeNode
p5466
(dp5467
g5
(dp5468
sg44
I00
sbsg7
(g11
S'\x1f\x00\x00\x00\x00\x00\x00\x00'
p5469
tp5470
Rp5471
(i__main__
TreeNode
p5472
(dp5473
g5
(dp5474
sg44
I01
sbsg7
(g11
S' \x00\x00\x00\x00\x00\x00\x00'
p5475
tp5476
Rp5477
(i__main__
TreeNode
p5478
(dp5479
g5
(dp5480
sg44
I01
sbsg7
(g11
S'!\x00\x00\x00\x00\x00\x00\x00'
p5481
tp5482
Rp5483
(i__main__
TreeNode
p5484
(dp5485
g5
(dp5486
sg44
I01
sbsg7
(g11
S'"\x00\x00\x00\x00\x00\x00\x00'
p5487
tp5488
Rp5489
(i__main__
TreeNode
p5490
(dp5491
g5
(dp5492
sg44
I01
sbsg7
(g11
S'$\x00\x00\x00\x00\x00\x00\x00'
p5493
tp5494
Rp5495
(i__main__
TreeNode
p5496
(dp5497
g5
(dp5498
sg44
I01
sbsg7
(g11
S'&\x00\x00\x00\x00\x00\x00\x00'
p5499
tp5500
Rp5501
(i__main__
TreeNode
p5502
(dp5503
g5
(dp5504
sg44
I01
sbsg7
(g11
S"'\x00\x00\x00\x00\x00\x00\x00"
p5505
tp5506
Rp5507
(i__main__
TreeNode
p5508
(dp5509
g5
(dp5510
sg44
I01
sbsg7
(g11
S'(\x00\x00\x00\x00\x00\x00\x00'
p5511
tp5512
Rp5513
(i__main__
TreeNode
p5514
(dp5515
g5
(dp5516
sg44
I01
sbsg7
(g11
S'+\x00\x00\x00\x00\x00\x00\x00'
p5517
tp5518
Rp5519
(i__main__
TreeNode
p5520
(dp5521
g5
(dp5522
sg44
I01
sbsg7
(g11
S'-\x00\x00\x00\x00\x00\x00\x00'
p5523
tp5524
Rp5525
(i__main__
TreeNode
p5526
(dp5527
g5
(dp5528
sg44
I01
sbsg7
(g11
S'.\x00\x00\x00\x00\x00\x00\x00'
p5529
tp5530
Rp5531
(i__main__
TreeNode
p5532
(dp5533
g5
(dp5534
sg44
I01
sbsg7
(g11
S'0\x00\x00\x00\x00\x00\x00\x00'
p5535
tp5536
Rp5537
(i__main__
TreeNode
p5538
(dp5539
g5
(dp5540
sg44
I00
sbsI-1
(i__main__
TreeNode
p5541
(dp5542
g5
(dp5543
sg44
I00
sbssg44
I15
sbsg7
(g11
S'\x05\x00\x00\x00\x00\x00\x00\x00'
p5544
tp5545
Rp5546
(i__main__
TreeNode
p5547
(dp5548
g5
(dp5549
g7
(g11
S'\x01\x00\x00\x00\x00\x00\x00\x00'
p5550
tp5551
Rp5552
(i__main__
TreeNode
p5553
(dp5554
g5
(dp5555
g7
(g11
S'\x01\x00\x00\x00\x00\x00\x00\x00'
p5556
tp5557
Rp5558
(i__main__
TreeNode
p5559
(dp5560
g5
(dp5561
g7
(g11
S'\x01\x00\x00\x00\x00\x00\x00\x00'
p5562
tp5563
Rp5564
(i__main__
TreeNode
p5565
(dp5566
g5
(dp5567
g7
(g11
S'\x03\x00\x00\x00\x00\x00\x00\x00'
p5568
tp5569
Rp5570
(i__main__
TreeNode
p5571
(dp5572
g5
(dp5573
sg44
I01
sbsg7
(g11
S'\x04\x00\x00\x00\x00\x00\x00\x00'
p5574
tp5575
Rp5576
(i__main__
TreeNode
p5577
(dp5578
g5
(dp5579
g7
(g11
S'\x01\x00\x00\x00\x00\x00\x00\x00'
p5580
tp5581
Rp5582
(i__main__
TreeNode
p5583
(dp5584
g5
(dp5585
sg44
I00
sbsg7
(g11
S'\x02\x00\x00\x00\x00\x00\x00\x00'
p5586
tp5587
Rp5588
(i__main__
TreeNode
p5589
(dp5590
g5
(dp5591
g7
(g11
S'\x01\x00\x00\x00\x00\x00\x00\x00'
p5592
tp5593
Rp5594
(i__main__
TreeNode
p5595
(dp5596
g5
(dp5597
sg44
I00
sbsg7
(g11
S'\x02\x00\x00\x00\x00\x00\x00\x00'
p5598
tp5599
Rp5600
(i__main__
TreeNode
p5601
(dp5602
g5
(dp5603
g7
(g11
S'\x01\x00\x00\x00\x00\x00\x00\x00'
p5604
tp5605
Rp5606
(i__main__
TreeNode
p5607
(dp5608
g5
(dp5609
sg44
I00
sbsg7
(g11
S'\x02\x00\x00\x00\x00\x00\x00\x00'
p5610
tp5611
Rp5612
(i__main__
TreeNode
p5613
(dp5614
g5
(dp5615
sg44
I00
sbsg7
(g11
S'\x03\x00\x00\x00\x00\x00\x00\x00'
p5616
tp5617
Rp5618
(i__main__
TreeNode
p5619
(dp5620
g5
(dp5621
sg44
I01
sbsg7
(g11
S'\x04\x00\x00\x00\x00\x00\x00\x00'
p5622
tp5623
Rp5624
(i__main__
TreeNode
p5625
(dp5626
g5
(dp5627
sg44
I00
sbsI-1
(i__main__
TreeNode
p5628
(dp5629
g5
(dp5630
sg44
I00
sbssg44
I268
sbsg7
(g11
S'\x03\x00\x00\x00\x00\x00\x00\x00'
p5631
tp5632
Rp5633
(i__main__
TreeNode
p5634
(dp5635
g5
(dp5636
sg44
I00
sbsg7
(g11
S'\x04\x00\x00\x00\x00\x00\x00\x00'
p5637
tp5638
Rp5639
(i__main__
TreeNode
p5640
(dp5641
g5
(dp5642
sg44
I00
sbsg7
(g11
S'\x05\x00\x00\x00\x00\x00\x00\x00'
p5643
tp5644
Rp5645
(i__main__
TreeNode
p5646
(dp5647
g5
(dp5648
sg44
I01
sbsI-1
(i__main__
TreeNode
p5649
(dp5650
g5
(dp5651
sg44
I00
sbssg44
I129
sbsI-1
(i__main__
TreeNode
p5652
(dp5653
g5
(dp5654
sg44
I00
sbssg44
I174
sbsg7
(g11
S'\x05\x00\x00\x00\x00\x00\x00\x00'
p5655
tp5656
Rp5657
(i__main__
TreeNode
p5658
(dp5659
g5
(dp5660
sg44
I00
sbsI-1
(i__main__
TreeNode
p5661
(dp5662
g5
(dp5663
sg44
I00
sbssg44
I163
sbsg7
(g11
S'\x02\x00\x00\x00\x00\x00\x00\x00'
p5664
tp5665
Rp5666
(i__main__
TreeNode
p5667
(dp5668
g5
(dp5669
sg44
I01
sbsg7
(g11
S'\x03\x00\x00\x00\x00\x00\x00\x00'
p5670
tp5671
Rp5672
(i__main__
TreeNode
p5673
(dp5674
g5
(dp5675
g7
(g11
S'\x01\x00\x00\x00\x00\x00\x00\x00'
p5676
tp5677
Rp5678
(i__main__
TreeNode
p5679
(dp5680
g5
(dp5681
sg44
I00
sbsg7
(g11
S'\x02\x00\x00\x00\x00\x00\x00\x00'
p5682
tp5683
Rp5684
(i__main__
TreeNode
p5685
(dp5686
g5
(dp5687
sg44
I00
sbsg7
(g11
S'\x03\x00\x00\x00\x00\x00\x00\x00'
p5688
tp5689
Rp5690
(i__main__
TreeNode
p5691
(dp5692
g5
(dp5693
sg44
I00
sbsg7
(g11
S'\x04\x00\x00\x00\x00\x00\x00\x00'
p5694
tp5695
Rp5696
(i__main__
TreeNode
p5697
(dp5698
g5
(dp5699
sg44
I00
sbsg7
(g11
S'\x05\x00\x00\x00\x00\x00\x00\x00'
p5700
tp5701
Rp5702
(i__main__
TreeNode
p5703
(dp5704
g5
(dp5705
sg44
I01
sbsI-1
(i__main__
TreeNode
p5706
(dp5707
g5
(dp5708
sg44
I00
sbssg44
I129
sbsg7
(g11
S'\x04\x00\x00\x00\x00\x00\x00\x00'
p5709
tp5710
Rp5711
(i__main__
TreeNode
p5712
(dp5713
g5
(dp5714
sg44
I00
sbsg7
(g11
S'\x05\x00\x00\x00\x00\x00\x00\x00'
p5715
tp5716
Rp5717
(i__main__
TreeNode
p5718
(dp5719
g5
(dp5720
g7
(g11
S'\x01\x00\x00\x00\x00\x00\x00\x00'
p5721
tp5722
Rp5723
(i__main__
TreeNode
p5724
(dp5725
g5
(dp5726
sg44
I01
sbsg7
(g11
S'\x02\x00\x00\x00\x00\x00\x00\x00'
p5727
tp5728
Rp5729
(i__main__
TreeNode
p5730
(dp5731
g5
(dp5732
sg44
I00
sbsg7
(g11
S'\x03\x00\x00\x00\x00\x00\x00\x00'
p5733
tp5734
Rp5735
(i__main__
TreeNode
p5736
(dp5737
g5
(dp5738
sg44
I01
sbsg7
(g11
S'\x04\x00\x00\x00\x00\x00\x00\x00'
p5739
tp5740
Rp5741
(i__main__
TreeNode
p5742
(dp5743
g5
(dp5744
sg44
I01
sbsg7
(g11
S'\x05\x00\x00\x00\x00\x00\x00\x00'
p5745
tp5746
Rp5747
(i__main__
TreeNode
p5748
(dp5749
g5
(dp5750
sg44
I00
sbsg7
(g11
S'\x07\x00\x00\x00\x00\x00\x00\x00'
p5751
tp5752
Rp5753
(i__main__
TreeNode
p5754
(dp5755
g5
(dp5756
sg44
I00
sbsI-1
(i__main__
TreeNode
p5757
(dp5758
g5
(dp5759
sg44
I00
sbssg44
I273
sbsg7
(g11
S'\x06\x00\x00\x00\x00\x00\x00\x00'
p5760
tp5761
Rp5762
(i__main__
TreeNode
p5763
(dp5764
g5
(dp5765
g7
(g11
S'\x01\x00\x00\x00\x00\x00\x00\x00'
p5766
tp5767
Rp5768
(i__main__
TreeNode
p5769
(dp5770
g5
(dp5771
sg44
I00
sbsg7
(g11
S'\x02\x00\x00\x00\x00\x00\x00\x00'
p5772
tp5773
Rp5774
(i__main__
TreeNode
p5775
(dp5776
g5
(dp5777
sg44
I01
sbsI-1
(i__main__
TreeNode
p5778
(dp5779
g5
(dp5780
sg44
I00
sbssg44
I174
sbsI-1
(i__main__
TreeNode
p5781
(dp5782
g5
(dp5783
sg44
I00
sbssg44
I272
sbsg7
(g11
S'\x02\x00\x00\x00\x00\x00\x00\x00'
p5784
tp5785
Rp5786
(i__main__
TreeNode
p5787
(dp5788
g5
(dp5789
sg44
I01
sbsg7
(g11
S'\x03\x00\x00\x00\x00\x00\x00\x00'
p5790
tp5791
Rp5792
(i__main__
TreeNode
p5793
(dp5794
g5
(dp5795
sg44
I01
sbsI-1
(i__main__
TreeNode
p5796
(dp5797
g5
(dp5798
sg44
I00
sbssg44
I11
sbsg7
(g11
S'\x02\x00\x00\x00\x00\x00\x00\x00'
p5799
tp5800
Rp5801
(i__main__
TreeNode
p5802
(dp5803
g5
(dp5804
sg44
I00
sbsg7
(g11
S'\x03\x00\x00\x00\x00\x00\x00\x00'
p5805
tp5806
Rp5807
(i__main__
TreeNode
p5808
(dp5809
g5
(dp5810
sg44
I00
sbsg7
(g11
S'\x04\x00\x00\x00\x00\x00\x00\x00'
p5811
tp5812
Rp5813
(i__main__
TreeNode
p5814
(dp5815
g5
(dp5816
g7
(g11
S'\x12\x00\x00\x00\x00\x00\x00\x00'
p5817
tp5818
Rp5819
(i__main__
TreeNode
p5820
(dp5821
g5
(dp5822
sg44
I01
sbsg7
(g11
S'\x03\x00\x00\x00\x00\x00\x00\x00'
p5823
tp5824
Rp5825
(i__main__
TreeNode
p5826
(dp5827
g5
(dp5828
g7
(g11
S'\x01\x00\x00\x00\x00\x00\x00\x00'
p5829
tp5830
Rp5831
(i__main__
TreeNode
p5832
(dp5833
g5
(dp5834
g7
(g11
S'\x01\x00\x00\x00\x00\x00\x00\x00'
p5835
tp5836
Rp5837
(i__main__
TreeNode
p5838
(dp5839
g5
(dp5840
sg44
I00
sbsg7
(g11
S'\x02\x00\x00\x00\x00\x00\x00\x00'
p5841
tp5842
Rp5843
(i__main__
TreeNode
p5844
(dp5845
g5
(dp5846
sg44
I01
sbsg7
(g11
S'\x03\x00\x00\x00\x00\x00\x00\x00'
p5847
tp5848
Rp5849
(i__main__
TreeNode
p5850
(dp5851
g5
(dp5852
g7
(g11
S'\x02\x00\x00\x00\x00\x00\x00\x00'
p5853
tp5854
Rp5855
(i__main__
TreeNode
p5856
(dp5857
g5
(dp5858
sg44
I01
sbsg7
(g11
S'\x03\x00\x00\x00\x00\x00\x00\x00'
p5859
tp5860
Rp5861
(i__main__
TreeNode
p5862
(dp5863
g5
(dp5864
sg44
I00
sbsg7
(g11
S'\x04\x00\x00\x00\x00\x00\x00\x00'
p5865
tp5866
Rp5867
(i__main__
TreeNode
p5868
(dp5869
g5
(dp5870
sg44
I00
sbsg7
(g11
S'\x05\x00\x00\x00\x00\x00\x00\x00'
p5871
tp5872
Rp5873
(i__main__
TreeNode
p5874
(dp5875
g5
(dp5876
sg44
I01
sbsI-1
(i__main__
TreeNode
p5877
(dp5878
g5
(dp5879
sg44
I01
sbssg44
I85
sbsg7
(g11
S'\x04\x00\x00\x00\x00\x00\x00\x00'
p5880
tp5881
Rp5882
(i__main__
TreeNode
p5883
(dp5884
g5
(dp5885
g7
(g11
S'\x01\x00\x00\x00\x00\x00\x00\x00'
p5886
tp5887
Rp5888
(i__main__
TreeNode
p5889
(dp5890
g5
(dp5891
sg44
I00
sbsg7
(g11
S'\x02\x00\x00\x00\x00\x00\x00\x00'
p5892
tp5893
Rp5894
(i__main__
TreeNode
p5895
(dp5896
g5
(dp5897
sg44
I01
sbsg7
(g11
S'\x03\x00\x00\x00\x00\x00\x00\x00'
p5898
tp5899
Rp5900
(i__main__
TreeNode
p5901
(dp5902
g5
(dp5903
sg44
I00
sbsg7
(g11
S'\x04\x00\x00\x00\x00\x00\x00\x00'
p5904
tp5905
Rp5906
(i__main__
TreeNode
p5907
(dp5908
g5
(dp5909
sg44
I00
sbsg7
(g11
S'\x05\x00\x00\x00\x00\x00\x00\x00'
p5910
tp5911
Rp5912
(i__main__
TreeNode
p5913
(dp5914
g5
(dp5915
sg44
I01
sbsg7
(g11
S'\x06\x00\x00\x00\x00\x00\x00\x00'
p5916
tp5917
Rp5918
(i__main__
TreeNode
p5919
(dp5920
g5
(dp5921
sg44
I01
sbsg7
(g11
S'\x07\x00\x00\x00\x00\x00\x00\x00'
p5922
tp5923
Rp5924
(i__main__
TreeNode
p5925
(dp5926
g5
(dp5927
sg44
I00
sbsI-1
(i__main__
TreeNode
p5928
(dp5929
g5
(dp5930
sg44
I00
sbssg44
I273
sbsg7
(g11
S'\x05\x00\x00\x00\x00\x00\x00\x00'
p5931
tp5932
Rp5933
(i__main__
TreeNode
p5934
(dp5935
g5
(dp5936
sg44
I01
sbsI-1
(i__main__
TreeNode
p5937
(dp5938
g5
(dp5939
sg44
I01
sbssg44
I82
sbsg7
(g11
S'\x02\x00\x00\x00\x00\x00\x00\x00'
p5940
tp5941
Rp5942
(i__main__
TreeNode
p5943
(dp5944
g5
(dp5945
sg44
I00
sbsg7
(g11
S'\x03\x00\x00\x00\x00\x00\x00\x00'
p5946
tp5947
Rp5948
(i__main__
TreeNode
p5949
(dp5950
g5
(dp5951
g7
(g11
S'\x01\x00\x00\x00\x00\x00\x00\x00'
p5952
tp5953
Rp5954
(i__main__
TreeNode
p5955
(dp5956
g5
(dp5957
sg44
I01
sbsg7
(g11
S'\x02\x00\x00\x00\x00\x00\x00\x00'
p5958
tp5959
Rp5960
(i__main__
TreeNode
p5961
(dp5962
g5
(dp5963
sg44
I00
sbsg7
(g11
S'\x03\x00\x00\x00\x00\x00\x00\x00'
p5964
tp5965
Rp5966
(i__main__
TreeNode
p5967
(dp5968
g5
(dp5969
sg44
I01
sbsg7
(g11
S'\x04\x00\x00\x00\x00\x00\x00\x00'
p5970
tp5971
Rp5972
(i__main__
TreeNode
p5973
(dp5974
g5
(dp5975
sg44
I00
sbsg7
(g11
S'\x05\x00\x00\x00\x00\x00\x00\x00'
p5976
tp5977
Rp5978
(i__main__
TreeNode
p5979
(dp5980
g5
(dp5981
sg44
I00
sbsI-1
(i__main__
TreeNode
p5982
(dp5983
g5
(dp5984
sg44
I00
sbssg44
I88
sbsg7
(g11
S'\x05\x00\x00\x00\x00\x00\x00\x00'
p5985
tp5986
Rp5987
(i__main__
TreeNode
p5988
(dp5989
g5
(dp5990
sg44
I01
sbsg7
(g11
S'\x06\x00\x00\x00\x00\x00\x00\x00'
p5991
tp5992
Rp5993
(i__main__
TreeNode
p5994
(dp5995
g5
(dp5996
sg44
I01
sbsI-1
(i__main__
TreeNode
p5997
(dp5998
g5
(dp5999
sg44
I01
sbssg44
I270
sbsg7
(g11
S'\r\x00\x00\x00\x00\x00\x00\x00'
p6000
tp6001
Rp6002
(i__main__
TreeNode
p6003
(dp6004
g5
(dp6005
sg44
I00
sbsI-1
(i__main__
TreeNode
p6006
(dp6007
g5
(dp6008
sg44
I00
sbsg7
(g11
S'\x05\x00\x00\x00\x00\x00\x00\x00'
p6009
tp6010
Rp6011
(i__main__
TreeNode
p6012
(dp6013
g5
(dp6014
g7
(g11
S'\x01\x00\x00\x00\x00\x00\x00\x00'
p6015
tp6016
Rp6017
(i__main__
TreeNode
p6018
(dp6019
g5
(dp6020
sg44
I01
sbsg7
(g11
S'\x02\x00\x00\x00\x00\x00\x00\x00'
p6021
tp6022
Rp6023
(i__main__
TreeNode
p6024
(dp6025
g5
(dp6026
sg44
I01
sbsg7
(g11
S'\x03\x00\x00\x00\x00\x00\x00\x00'
p6027
tp6028
Rp6029
(i__main__
TreeNode
p6030
(dp6031
g5
(dp6032
sg44
I00
sbsg7
(g11
S'\x04\x00\x00\x00\x00\x00\x00\x00'
p6033
tp6034
Rp6035
(i__main__
TreeNode
p6036
(dp6037
g5
(dp6038
sg44
I00
sbsg7
(g11
S'\x05\x00\x00\x00\x00\x00\x00\x00'
p6039
tp6040
Rp6041
(i__main__
TreeNode
p6042
(dp6043
g5
(dp6044
sg44
I00
sbsI-1
(i__main__
TreeNode
p6045
(dp6046
g5
(dp6047
sg44
I01
sbssg44
I82
sbssg44
I263
sbsg7
(g11
S'\x05\x00\x00\x00\x00\x00\x00\x00'
p6048
tp6049
Rp6050
(i__main__
TreeNode
p6051
(dp6052
g5
(dp6053
g7
(g11
S'\x01\x00\x00\x00\x00\x00\x00\x00'
p6054
tp6055
Rp6056
(i__main__
TreeNode
p6057
(dp6058
g5
(dp6059
sg44
I00
sbsg7
(g11
S'\x02\x00\x00\x00\x00\x00\x00\x00'
p6060
tp6061
Rp6062
(i__main__
TreeNode
p6063
(dp6064
g5
(dp6065
sg44
I00
sbsg7
(g11
S'\x03\x00\x00\x00\x00\x00\x00\x00'
p6066
tp6067
Rp6068
(i__main__
TreeNode
p6069
(dp6070
g5
(dp6071
sg44
I00
sbsg7
(g11
S'\x04\x00\x00\x00\x00\x00\x00\x00'
p6072
tp6073
Rp6074
(i__main__
TreeNode
p6075
(dp6076
g5
(dp6077
sg44
I00
sbsg7
(g11
S'\x05\x00\x00\x00\x00\x00\x00\x00'
p6078
tp6079
Rp6080
(i__main__
TreeNode
p6081
(dp6082
g5
(dp6083
sg44
I00
sbsg7
(g11
S'\x06\x00\x00\x00\x00\x00\x00\x00'
p6084
tp6085
Rp6086
(i__main__
TreeNode
p6087
(dp6088
g5
(dp6089
sg44
I00
sbsg7
(g11
S'\x07\x00\x00\x00\x00\x00\x00\x00'
p6090
tp6091
Rp6092
(i__main__
TreeNode
p6093
(dp6094
g5
(dp6095
sg44
I00
sbsI-1
(i__main__
TreeNode
p6096
(dp6097
g5
(dp6098
sg44
I00
sbssg44
I242
sbsg7
(g11
S'\x06\x00\x00\x00\x00\x00\x00\x00'
p6099
tp6100
Rp6101
(i__main__
TreeNode
p6102
(dp6103
g5
(dp6104
g7
(g11
S'\x01\x00\x00\x00\x00\x00\x00\x00'
p6105
tp6106
Rp6107
(i__main__
TreeNode
p6108
(dp6109
g5
(dp6110
g7
(g11
S'\x01\x00\x00\x00\x00\x00\x00\x00'
p6111
tp6112
Rp6113
(i__main__
TreeNode
p6114
(dp6115
g5
(dp6116
sg44
I00
sbsg7
(g11
S'\x02\x00\x00\x00\x00\x00\x00\x00'
p6117
tp6118
Rp6119
(i__main__
TreeNode
p6120
(dp6121
g5
(dp6122
sg44
I00
sbsg7
(g11
S'\x03\x00\x00\x00\x00\x00\x00\x00'
p6123
tp6124
Rp6125
(i__main__
TreeNode
p6126
(dp6127
g5
(dp6128
sg44
I01
sbsg7
(g11
S'\x05\x00\x00\x00\x00\x00\x00\x00'
p6129
tp6130
Rp6131
(i__main__
TreeNode
p6132
(dp6133
g5
(dp6134
sg44
I00
sbsI-1
(i__main__
TreeNode
p6135
(dp6136
g5
(dp6137
sg44
I00
sbssg44
I84
sbsg7
(g11
S'\x02\x00\x00\x00\x00\x00\x00\x00'
p6138
tp6139
Rp6140
(i__main__
TreeNode
p6141
(dp6142
g5
(dp6143
sg44
I00
sbsg7
(g11
S'\x03\x00\x00\x00\x00\x00\x00\x00'
p6144
tp6145
Rp6146
(i__main__
TreeNode
p6147
(dp6148
g5
(dp6149
sg44
I01
sbsg7
(g11
S'\x05\x00\x00\x00\x00\x00\x00\x00'
p6150
tp6151
Rp6152
(i__main__
TreeNode
p6153
(dp6154
g5
(dp6155
sg44
I01
sbsg7
(g11
S'\x06\x00\x00\x00\x00\x00\x00\x00'
p6156
tp6157
Rp6158
(i__main__
TreeNode
p6159
(dp6160
g5
(dp6161
sg44
I01
sbsI-1
(i__main__
TreeNode
p6162
(dp6163
g5
(dp6164
sg44
I00
sbssg44
I139
sbsg7
(g11
S'\x07\x00\x00\x00\x00\x00\x00\x00'
p6165
tp6166
Rp6167
(i__main__
TreeNode
p6168
(dp6169
g5
(dp6170
g7
(g11
S'\x01\x00\x00\x00\x00\x00\x00\x00'
p6171
tp6172
Rp6173
(i__main__
TreeNode
p6174
(dp6175
g5
(dp6176
sg44
I00
sbsg7
(g11
S'\x02\x00\x00\x00\x00\x00\x00\x00'
p6177
tp6178
Rp6179
(i__main__
TreeNode
p6180
(dp6181
g5
(dp6182
sg44
I00
sbsg7
(g11
S'\x03\x00\x00\x00\x00\x00\x00\x00'
p6183
tp6184
Rp6185
(i__main__
TreeNode
p6186
(dp6187
g5
(dp6188
sg44
I00
sbsg7
(g11
S'\x04\x00\x00\x00\x00\x00\x00\x00'
p6189
tp6190
Rp6191
(i__main__
TreeNode
p6192
(dp6193
g5
(dp6194
sg44
I01
sbsI-1
(i__main__
TreeNode
p6195
(dp6196
g5
(dp6197
sg44
I00
sbssg44
I272
sbsg7
(g11
S'\x08\x00\x00\x00\x00\x00\x00\x00'
p6198
tp6199
Rp6200
(i__main__
TreeNode
p6201
(dp6202
g5
(dp6203
sg44
I00
sbsg7
(g11
S'\t\x00\x00\x00\x00\x00\x00\x00'
p6204
tp6205
Rp6206
(i__main__
TreeNode
p6207
(dp6208
g5
(dp6209
sg44
I00
sbsI-1
(i__main__
TreeNode
p6210
(dp6211
g5
(dp6212
sg44
I00
sbssg44
I262
sbsI-1
(i__main__
TreeNode
p6213
(dp6214
g5
(dp6215
sg44
I00
sbssg44
I89
sbsS'p_value_threshold'
p6216
F0.05
sb.